
PARTE 1.elf:     file format elf32-avr

Sections:
Idx Name          Size      VMA       LMA       File off  Algn
  0 .data         00000000  00800100  00800100  00003242  2**0
                  ALLOC, LOAD, DATA
  1 .text         0000009c  00000000  00000000  00000094  2**1
                  CONTENTS, ALLOC, LOAD, READONLY, CODE
  2 .comment      0000002f  00000000  00000000  00003242  2**0
                  CONTENTS, READONLY
  3 .stack.descriptors.hdr 0000016c  00000000  00000000  00003271  2**0
                  CONTENTS, READONLY
  4 .debug_aranges 00000088  00000000  00000000  000033dd  2**0
                  CONTENTS, READONLY, DEBUGGING
  5 .debug_info   0000256a  00000000  00000000  00003465  2**0
                  CONTENTS, READONLY, DEBUGGING
  6 .debug_abbrev 0000080f  00000000  00000000  000059cf  2**0
                  CONTENTS, READONLY, DEBUGGING
  7 .debug_line   00000c22  00000000  00000000  000061de  2**0
                  CONTENTS, READONLY, DEBUGGING
  8 .debug_frame  00000124  00000000  00000000  00006e00  2**2
                  CONTENTS, READONLY, DEBUGGING
  9 .debug_str    00000208  00000000  00000000  00006f24  2**0
                  CONTENTS, READONLY, DEBUGGING
 10 .debug_loc    00000b0f  00000000  00000000  0000712c  2**0
                  CONTENTS, READONLY, DEBUGGING
 11 .debug_ranges 000000d8  00000000  00000000  00007c3b  2**0
                  CONTENTS, READONLY, DEBUGGING
 12 .text         00000004  000031a0  000031a0  00003234  2**1
                  CONTENTS, ALLOC, LOAD, READONLY, CODE
 13 .note.gnu.avr.deviceinfo 00000040  00000000  00000000  00007d14  2**2
                  CONTENTS, READONLY, DEBUGGING
 14 .text.UART_init 00000016  0000309a  0000309a  0000312e  2**1
                  CONTENTS, ALLOC, LOAD, READONLY, CODE
 15 .text.UART_sendChar 0000000e  000030fc  000030fc  00003190  2**1
                  CONTENTS, ALLOC, LOAD, READONLY, CODE
 16 .text.UART_receiveChar 0000000e  0000310a  0000310a  0000319e  2**1
                  CONTENTS, ALLOC, LOAD, READONLY, CODE
 17 .text.UART_sendString 0000002c  00002fa6  00002fa6  0000303a  2**1
                  CONTENTS, ALLOC, LOAD, READONLY, CODE
 18 .text.init_pins 00000008  0000318a  0000318a  0000321e  2**1
                  CONTENTS, ALLOC, LOAD, READONLY, CODE
 19 .text.mover_solenoide 00000020  00003044  00003044  000030d8  2**1
                  CONTENTS, ALLOC, LOAD, READONLY, CODE
 20 .text.mover_plotter 00000262  00001bae  00001bae  00001c42  2**1
                  CONTENTS, ALLOC, LOAD, READONLY, CODE
 21 .text.Centrar 000000a2  00002c7e  00002c7e  00002d12  2**1
                  CONTENTS, ALLOC, LOAD, READONLY, CODE
 22 .text.dibujar_circulo 00000102  00002648  00002648  000026dc  2**1
                  CONTENTS, ALLOC, LOAD, READONLY, CODE
 23 .text.dibujar_Flor 00000100  0000274a  0000274a  000027de  2**1
                  CONTENTS, ALLOC, LOAD, READONLY, CODE
 24 .text.dibujar_Triangulo 00000040  00002ef8  00002ef8  00002f8c  2**1
                  CONTENTS, ALLOC, LOAD, READONLY, CODE
 25 .text.dibujar_cruz 00000074  00002d9a  00002d9a  00002e2e  2**1
                  CONTENTS, ALLOC, LOAD, READONLY, CODE
 26 .text.dibujar_Zorro 00000292  0000191c  0000191c  000019b0  2**1
                  CONTENTS, ALLOC, LOAD, READONLY, CODE
 27 .progmemx.data 00000313  0000009c  0000009c  00000130  2**0
                  CONTENTS, ALLOC, LOAD, READONLY, PROGMEMX
 28 .text.main    00000236  00001e10  00001e10  00001ea4  2**1
                  CONTENTS, ALLOC, LOAD, READONLY, CODE
 29 .text         0000000e  00003118  00003118  000031ac  2**1
                  CONTENTS, ALLOC, LOAD, READONLY, CODE
 30 .text         000000ce  00002afe  00002afe  00002b92  2**1
                  CONTENTS, ALLOC, LOAD, READONLY, CODE
 31 .text         0000000a  00003176  00003176  0000320a  2**1
                  CONTENTS, ALLOC, LOAD, READONLY, CODE
 32 .text         0000000e  00003126  00003126  000031ba  2**1
                  CONTENTS, ALLOC, LOAD, READONLY, CODE
 33 .text         0000005e  00002e0e  00002e0e  00002ea2  2**1
                  CONTENTS, ALLOC, LOAD, READONLY, CODE
 34 .text         00000048  00002e6c  00002e6c  00002f00  2**1
                  CONTENTS, ALLOC, LOAD, READONLY, CODE
 35 .text         0000000c  0000315e  0000315e  000031f2  2**1
                  CONTENTS, ALLOC, LOAD, READONLY, CODE
 36 .text         00000006  0000319a  0000319a  0000322e  2**1
                  CONTENTS, ALLOC, LOAD, READONLY, CODE
 37 .text         0000000e  00003134  00003134  000031c8  2**1
                  CONTENTS, ALLOC, LOAD, READONLY, CODE
 38 .text         0000000e  00003142  00003142  000031d6  2**1
                  CONTENTS, ALLOC, LOAD, READONLY, CODE
 39 .text         00000022  00003022  00003022  000030b6  2**1
                  CONTENTS, ALLOC, LOAD, READONLY, CODE
 40 .text         00000044  00002eb4  00002eb4  00002f48  2**1
                  CONTENTS, ALLOC, LOAD, READONLY, CODE
 41 .text         0000000e  00003150  00003150  000031e4  2**1
                  CONTENTS, ALLOC, LOAD, READONLY, CODE
 42 .text         00000008  00003192  00003192  00003226  2**1
                  CONTENTS, ALLOC, LOAD, READONLY, CODE
 43 .text         000000d4  00002a2a  00002a2a  00002abe  2**1
                  CONTENTS, ALLOC, LOAD, READONLY, CODE
 44 .text.cosf    0000016a  000023ac  000023ac  00002440  2**1
                  CONTENTS, ALLOC, LOAD, READONLY, CODE
 45 .text.sinf    000001ca  00002046  00002046  000020da  2**1
                  CONTENTS, ALLOC, LOAD, READONLY, CODE
 46 .text.__cosdf 000000ee  0000293c  0000293c  000029d0  2**1
                  CONTENTS, ALLOC, LOAD, READONLY, CODE
 47 .text.__rem_pio2f 0000019c  00002210  00002210  000022a4  2**1
                  CONTENTS, ALLOC, LOAD, READONLY, CODE
 48 .text.__sindf 000000f2  0000284a  0000284a  000028de  2**1
                  CONTENTS, ALLOC, LOAD, READONLY, CODE
 49 .text.__rem_pio2_large 0000143c  000004e0  000004e0  00000574  2**1
                  CONTENTS, ALLOC, LOAD, READONLY, CODE
 50 .progmemx.data.PIo2 00000020  000004b7  000004b7  0000054b  2**0
                  CONTENTS, ALLOC, LOAD, READONLY, PROGMEMX
 51 .progmemx.data.ipio2 00000108  000003af  000003af  00000443  2**0
                  CONTENTS, ALLOC, LOAD, READONLY, PROGMEMX
 52 .progmemx.data.init_jk 00000008  000004d7  000004d7  0000056b  2**0
                  CONTENTS, ALLOC, LOAD, READONLY, PROGMEMX
 53 .text         0000007a  00002d20  00002d20  00002db4  2**1
                  CONTENTS, ALLOC, LOAD, READONLY, CODE
 54 .text         0000000a  00003180  00003180  00003214  2**1
                  CONTENTS, ALLOC, LOAD, READONLY, CODE
 55 .text.floorf  00000132  00002516  00002516  000025aa  2**1
                  CONTENTS, ALLOC, LOAD, READONLY, CODE
 56 .text.scalbnf 000000b2  00002bcc  00002bcc  00002c60  2**1
                  CONTENTS, ALLOC, LOAD, READONLY, CODE
 57 .text.libgcc.div 00000028  00002fd2  00002fd2  00003066  2**1
                  CONTENTS, ALLOC, LOAD, READONLY, CODE
 58 .text.libgcc  0000000c  0000316a  0000316a  000031fe  2**1
                  CONTENTS, ALLOC, LOAD, READONLY, CODE
 59 .text.libgcc.mul 00000010  000030dc  000030dc  00003170  2**1
                  CONTENTS, ALLOC, LOAD, READONLY, CODE
 60 .text.libgcc.prologue 00000038  00002f38  00002f38  00002fcc  2**1
                  CONTENTS, ALLOC, LOAD, READONLY, CODE
 61 .text.libgcc.prologue 00000036  00002f70  00002f70  00003004  2**1
                  CONTENTS, ALLOC, LOAD, READONLY, CODE
 62 .text.libgcc  00000010  000030ec  000030ec  00003180  2**1
                  CONTENTS, ALLOC, LOAD, READONLY, CODE
 63 .text.libgcc  00000018  00003082  00003082  00003116  2**1
                  CONTENTS, ALLOC, LOAD, READONLY, CODE
 64 .text.libgcc.div 00000028  00002ffa  00002ffa  0000308e  2**1
                  CONTENTS, ALLOC, LOAD, READONLY, CODE
 65 .text.libgcc.mul 00000016  000030b0  000030b0  00003144  2**1
                  CONTENTS, ALLOC, LOAD, READONLY, CODE
 66 .text.libgcc.mul 0000001e  00003064  00003064  000030f8  2**1
                  CONTENTS, ALLOC, LOAD, READONLY, CODE
 67 .text.__dummy_fini 00000002  000031a8  000031a8  0000323c  2**1
                  CONTENTS, ALLOC, LOAD, READONLY, CODE
 68 .text.__dummy_funcs_on_exit 00000002  000031aa  000031aa  0000323e  2**1
                  CONTENTS, ALLOC, LOAD, READONLY, CODE
 69 .text.__dummy_simulator_exit 00000002  000031ac  000031ac  00003240  2**1
                  CONTENTS, ALLOC, LOAD, READONLY, CODE
 70 .text.exit    00000016  000030c6  000030c6  0000315a  2**1
                  CONTENTS, ALLOC, LOAD, READONLY, CODE
 71 .text._Exit   00000004  000031a4  000031a4  00003238  2**1
                  CONTENTS, ALLOC, LOAD, READONLY, CODE

Disassembly of section .text:

00000000 <__vectors>:
   0:	0c 94 42 00 	jmp	0x84	; 0x84 <__ctors_end>
   4:	0c 94 d0 18 	jmp	0x31a0	; 0x31a0 <__bad_interrupt>
   8:	0c 94 d0 18 	jmp	0x31a0	; 0x31a0 <__bad_interrupt>
   c:	0c 94 d0 18 	jmp	0x31a0	; 0x31a0 <__bad_interrupt>
  10:	0c 94 d0 18 	jmp	0x31a0	; 0x31a0 <__bad_interrupt>
  14:	0c 94 d0 18 	jmp	0x31a0	; 0x31a0 <__bad_interrupt>
  18:	0c 94 d0 18 	jmp	0x31a0	; 0x31a0 <__bad_interrupt>
  1c:	0c 94 d0 18 	jmp	0x31a0	; 0x31a0 <__bad_interrupt>
  20:	0c 94 d0 18 	jmp	0x31a0	; 0x31a0 <__bad_interrupt>
  24:	0c 94 d0 18 	jmp	0x31a0	; 0x31a0 <__bad_interrupt>
  28:	0c 94 d0 18 	jmp	0x31a0	; 0x31a0 <__bad_interrupt>
  2c:	0c 94 d0 18 	jmp	0x31a0	; 0x31a0 <__bad_interrupt>
  30:	0c 94 d0 18 	jmp	0x31a0	; 0x31a0 <__bad_interrupt>
  34:	0c 94 d0 18 	jmp	0x31a0	; 0x31a0 <__bad_interrupt>
  38:	0c 94 d0 18 	jmp	0x31a0	; 0x31a0 <__bad_interrupt>
  3c:	0c 94 d0 18 	jmp	0x31a0	; 0x31a0 <__bad_interrupt>
  40:	0c 94 d0 18 	jmp	0x31a0	; 0x31a0 <__bad_interrupt>
  44:	0c 94 d0 18 	jmp	0x31a0	; 0x31a0 <__bad_interrupt>
  48:	0c 94 d0 18 	jmp	0x31a0	; 0x31a0 <__bad_interrupt>
  4c:	0c 94 d0 18 	jmp	0x31a0	; 0x31a0 <__bad_interrupt>
  50:	0c 94 d0 18 	jmp	0x31a0	; 0x31a0 <__bad_interrupt>
  54:	0c 94 d0 18 	jmp	0x31a0	; 0x31a0 <__bad_interrupt>
  58:	0c 94 d0 18 	jmp	0x31a0	; 0x31a0 <__bad_interrupt>
  5c:	0c 94 d0 18 	jmp	0x31a0	; 0x31a0 <__bad_interrupt>
  60:	0c 94 d0 18 	jmp	0x31a0	; 0x31a0 <__bad_interrupt>
  64:	0c 94 d0 18 	jmp	0x31a0	; 0x31a0 <__bad_interrupt>
  68:	e0 0d       	add	r30, r0
  6a:	f0 0d       	add	r31, r0
  6c:	00 0e       	add	r0, r16
  6e:	10 0e       	add	r1, r16
  70:	41 0e       	add	r4, r17
  72:	6b 0e       	add	r6, r27
  74:	95 0e       	add	r9, r21
  76:	bf 0e       	add	r11, r31
  78:	07 0f       	add	r16, r23
  7a:	07 0f       	add	r16, r23
  7c:	c8 0e       	add	r12, r24
  7e:	d8 0e       	add	r13, r24
  80:	e8 0e       	add	r14, r24
  82:	f8 0e       	add	r15, r24

00000084 <__ctors_end>:
  84:	11 24       	eor	r1, r1
  86:	1f be       	out	0x3f, r1	; 63
  88:	cf ef       	ldi	r28, 0xFF	; 255
  8a:	d8 e0       	ldi	r29, 0x08	; 8
  8c:	de bf       	out	0x3e, r29	; 62
  8e:	cd bf       	out	0x3d, r28	; 61
  90:	0e 94 08 0f 	call	0x1e10	; 0x1e10 <main>
  94:	0c 94 63 18 	jmp	0x30c6	; 0x30c6 <exit>

00000098 <_exit>:
  98:	f8 94       	cli

0000009a <__stop_program>:
  9a:	ff cf       	rjmp	.-2      	; 0x9a <__stop_program>

Disassembly of section .text:

000031a0 <__bad_interrupt>:
    31a0:	0c 94 00 00 	jmp	0	; 0x0 <__TEXT_REGION_ORIGIN__>

Disassembly of section .text.UART_init:

0000309a <UART_init>:
#include <util/delay.h>


void UART_init(unsigned int ubrr) {
	// Configurar el valor de UBRR (Baud Rate Register)
	UBRR0H = (unsigned char)(ubrr >> 8);
    309a:	90 93 c5 00 	sts	0x00C5, r25	; 0x8000c5 <__TEXT_REGION_LENGTH__+0x7f80c5>
	UBRR0L = (unsigned char)ubrr;
    309e:	80 93 c4 00 	sts	0x00C4, r24	; 0x8000c4 <__TEXT_REGION_LENGTH__+0x7f80c4>
	UCSR0B = (1 << RXEN0) | (1 << TXEN0);
    30a2:	88 e1       	ldi	r24, 0x18	; 24
    30a4:	80 93 c1 00 	sts	0x00C1, r24	; 0x8000c1 <__TEXT_REGION_LENGTH__+0x7f80c1>
	UCSR0C = (1 << UCSZ01) | (1 << UCSZ00);
    30a8:	86 e0       	ldi	r24, 0x06	; 6
    30aa:	80 93 c2 00 	sts	0x00C2, r24	; 0x8000c2 <__TEXT_REGION_LENGTH__+0x7f80c2>
    30ae:	08 95       	ret

Disassembly of section .text.UART_sendChar:

000030fc <UART_sendChar>:
}

void UART_sendChar(char data) {
	while (!(UCSR0A & (1 << UDRE0))){}
    30fc:	90 91 c0 00 	lds	r25, 0x00C0	; 0x8000c0 <__TEXT_REGION_LENGTH__+0x7f80c0>
    3100:	95 ff       	sbrs	r25, 5
    3102:	fc cf       	rjmp	.-8      	; 0x30fc <UART_sendChar>
	UDR0 = data;
    3104:	80 93 c6 00 	sts	0x00C6, r24	; 0x8000c6 <__TEXT_REGION_LENGTH__+0x7f80c6>
    3108:	08 95       	ret

Disassembly of section .text.UART_receiveChar:

0000310a <UART_receiveChar>:
}

char UART_receiveChar(void) {
	while (!(UCSR0A & (1 << RXC0))){}
    310a:	80 91 c0 00 	lds	r24, 0x00C0	; 0x8000c0 <__TEXT_REGION_LENGTH__+0x7f80c0>
    310e:	88 23       	and	r24, r24
    3110:	e4 f7       	brge	.-8      	; 0x310a <UART_receiveChar>
	return UDR0;
    3112:	80 91 c6 00 	lds	r24, 0x00C6	; 0x8000c6 <__TEXT_REGION_LENGTH__+0x7f80c6>
}
    3116:	08 95       	ret

Disassembly of section .text.UART_sendString:

00002fa6 <UART_sendString>:

void UART_sendString(const char *str) {
    2fa6:	cf 92       	push	r12
    2fa8:	df 92       	push	r13
    2faa:	ef 92       	push	r14
    2fac:	6b 01       	movw	r12, r22
    2fae:	e8 2e       	mov	r14, r24
	while (*str) {
    2fb0:	06 c0       	rjmp	.+12     	; 0x2fbe <UART_sendString+0x18>
		UART_sendChar(*str++);
    2fb2:	9f ef       	ldi	r25, 0xFF	; 255
    2fb4:	c9 1a       	sub	r12, r25
    2fb6:	d9 0a       	sbc	r13, r25
    2fb8:	e9 0a       	sbc	r14, r25
    2fba:	0e 94 7e 18 	call	0x30fc	; 0x30fc <UART_sendChar>
	while (!(UCSR0A & (1 << RXC0))){}
	return UDR0;
}

void UART_sendString(const char *str) {
	while (*str) {
    2fbe:	f6 01       	movw	r30, r12
    2fc0:	84 91       	lpm	r24, Z
    2fc2:	e7 fc       	sbrc	r14, 7
    2fc4:	80 81       	ld	r24, Z
    2fc6:	81 11       	cpse	r24, r1
    2fc8:	f4 cf       	rjmp	.-24     	; 0x2fb2 <UART_sendString+0xc>
		UART_sendChar(*str++);
	}
}
    2fca:	ef 90       	pop	r14
    2fcc:	df 90       	pop	r13
    2fce:	cf 90       	pop	r12
    2fd0:	08 95       	ret

Disassembly of section .text.init_pins:

0000318a <init_pins>:

void init_pins() {
	DDRD |= (1 << PD2) | (1 << PD3) | (1 << PD4) | (1 << PD5) | (1 << PD6) | (1 << PD7);
    318a:	8a b1       	in	r24, 0x0a	; 10
    318c:	8c 6f       	ori	r24, 0xFC	; 252
    318e:	8a b9       	out	0x0a, r24	; 10
    3190:	08 95       	ret

Disassembly of section .text.mover_solenoide:

00003044 <mover_solenoide>:
}

void mover_solenoide(int bajar) {
	if (bajar) {
    3044:	89 2b       	or	r24, r25
    3046:	39 f0       	breq	.+14     	; 0x3056 <mover_solenoide+0x12>
		PORTD |= (1 << PD2);   // Activar solenoide para bajar
    3048:	8b b1       	in	r24, 0x0b	; 11
    304a:	84 60       	ori	r24, 0x04	; 4
    304c:	8b b9       	out	0x0b, r24	; 11
		PORTD &= ~(1 << PD3);  // Desactivar solenoide para subir
    304e:	8b b1       	in	r24, 0x0b	; 11
    3050:	87 7f       	andi	r24, 0xF7	; 247
    3052:	8b b9       	out	0x0b, r24	; 11
    3054:	08 95       	ret
		} else {
		PORTD &= ~(1 << PD2);  // Desactivar solenoide para bajar
    3056:	8b b1       	in	r24, 0x0b	; 11
    3058:	8b 7f       	andi	r24, 0xFB	; 251
    305a:	8b b9       	out	0x0b, r24	; 11
		PORTD |= (1 << PD3);   // Activar solenoide para subir
    305c:	8b b1       	in	r24, 0x0b	; 11
    305e:	88 60       	ori	r24, 0x08	; 8
    3060:	8b b9       	out	0x0b, r24	; 11
    3062:	08 95       	ret

Disassembly of section .text.mover_plotter:

00001bae <mover_plotter>:
	}
}

// Función para mover el plóter en las direcciones X e Y
void mover_plotter(int dir) {
	switch (dir) {
    1bae:	8e 30       	cpi	r24, 0x0E	; 14
    1bb0:	91 05       	cpc	r25, r1
    1bb2:	08 f0       	brcs	.+2      	; 0x1bb6 <mover_plotter+0x8>
    1bb4:	2c c1       	rjmp	.+600    	; 0x1e0e <mover_plotter+0x260>
    1bb6:	fc 01       	movw	r30, r24
    1bb8:	ec 5c       	subi	r30, 0xCC	; 204
    1bba:	ff 4f       	sbci	r31, 0xFF	; 255
    1bbc:	0c 94 b5 18 	jmp	0x316a	; 0x316a <__tablejump2__>
		case 0:  // Mover hacia abajo
		PORTD |= (1 << PD4);
    1bc0:	8b b1       	in	r24, 0x0b	; 11
    1bc2:	80 61       	ori	r24, 0x10	; 16
    1bc4:	8b b9       	out	0x0b, r24	; 11
	#else
		//round up by default
		__ticks_dc = (uint32_t)(ceil(fabs(__tmp)));
	#endif

	__builtin_avr_delay_cycles(__ticks_dc);
    1bc6:	2f ef       	ldi	r18, 0xFF	; 255
    1bc8:	43 ed       	ldi	r20, 0xD3	; 211
    1bca:	80 e3       	ldi	r24, 0x30	; 48
    1bcc:	21 50       	subi	r18, 0x01	; 1
    1bce:	40 40       	sbci	r20, 0x00	; 0
    1bd0:	80 40       	sbci	r24, 0x00	; 0
    1bd2:	e1 f7       	brne	.-8      	; 0x1bcc <mover_plotter+0x1e>
    1bd4:	00 c0       	rjmp	.+0      	; 0x1bd6 <mover_plotter+0x28>
    1bd6:	00 00       	nop
		_delay_ms(1000);
		PORTD &= ~(1 << PD4);
    1bd8:	8b b1       	in	r24, 0x0b	; 11
    1bda:	8f 7e       	andi	r24, 0xEF	; 239
    1bdc:	8b b9       	out	0x0b, r24	; 11
		break;
    1bde:	08 95       	ret
		case 1:  // Mover hacia arriba
		PORTD |= (1 << PD5);
    1be0:	8b b1       	in	r24, 0x0b	; 11
    1be2:	80 62       	ori	r24, 0x20	; 32
    1be4:	8b b9       	out	0x0b, r24	; 11
    1be6:	9f ef       	ldi	r25, 0xFF	; 255
    1be8:	23 ed       	ldi	r18, 0xD3	; 211
    1bea:	40 e3       	ldi	r20, 0x30	; 48
    1bec:	91 50       	subi	r25, 0x01	; 1
    1bee:	20 40       	sbci	r18, 0x00	; 0
    1bf0:	40 40       	sbci	r20, 0x00	; 0
    1bf2:	e1 f7       	brne	.-8      	; 0x1bec <mover_plotter+0x3e>
    1bf4:	00 c0       	rjmp	.+0      	; 0x1bf6 <mover_plotter+0x48>
    1bf6:	00 00       	nop
		_delay_ms(1000);
		PORTD &= ~(1 << PD5);
    1bf8:	8b b1       	in	r24, 0x0b	; 11
    1bfa:	8f 7d       	andi	r24, 0xDF	; 223
    1bfc:	8b b9       	out	0x0b, r24	; 11
		break;
    1bfe:	08 95       	ret
		case 2:  // Mover hacia la izquierda
		PORTD |= (1 << PD6);
    1c00:	8b b1       	in	r24, 0x0b	; 11
    1c02:	80 64       	ori	r24, 0x40	; 64
    1c04:	8b b9       	out	0x0b, r24	; 11
    1c06:	8f ef       	ldi	r24, 0xFF	; 255
    1c08:	93 ed       	ldi	r25, 0xD3	; 211
    1c0a:	20 e3       	ldi	r18, 0x30	; 48
    1c0c:	81 50       	subi	r24, 0x01	; 1
    1c0e:	90 40       	sbci	r25, 0x00	; 0
    1c10:	20 40       	sbci	r18, 0x00	; 0
    1c12:	e1 f7       	brne	.-8      	; 0x1c0c <mover_plotter+0x5e>
    1c14:	00 c0       	rjmp	.+0      	; 0x1c16 <mover_plotter+0x68>
    1c16:	00 00       	nop
		_delay_ms(1000);
		PORTD &= ~(1 << PD6);
    1c18:	8b b1       	in	r24, 0x0b	; 11
    1c1a:	8f 7b       	andi	r24, 0xBF	; 191
    1c1c:	8b b9       	out	0x0b, r24	; 11
		break;
    1c1e:	08 95       	ret
		case 3:  // Mover hacia la derecha
		PORTD |= (1 << PD7);
    1c20:	8b b1       	in	r24, 0x0b	; 11
    1c22:	80 68       	ori	r24, 0x80	; 128
    1c24:	8b b9       	out	0x0b, r24	; 11
    1c26:	4f ef       	ldi	r20, 0xFF	; 255
    1c28:	83 ed       	ldi	r24, 0xD3	; 211
    1c2a:	90 e3       	ldi	r25, 0x30	; 48
    1c2c:	41 50       	subi	r20, 0x01	; 1
    1c2e:	80 40       	sbci	r24, 0x00	; 0
    1c30:	90 40       	sbci	r25, 0x00	; 0
    1c32:	e1 f7       	brne	.-8      	; 0x1c2c <mover_plotter+0x7e>
    1c34:	00 c0       	rjmp	.+0      	; 0x1c36 <mover_plotter+0x88>
    1c36:	00 00       	nop
		_delay_ms(1000);
		PORTD &= ~(1 << PD7);
    1c38:	8b b1       	in	r24, 0x0b	; 11
    1c3a:	8f 77       	andi	r24, 0x7F	; 127
    1c3c:	8b b9       	out	0x0b, r24	; 11
		break;
    1c3e:	08 95       	ret
		case 4:  // Mover hacia abajo-izquierda (diagonal)
		for(int i = 0; i < 10; i++){
			PORTD &= ~(1 << PD6);
    1c40:	8b b1       	in	r24, 0x0b	; 11
    1c42:	8f 7b       	andi	r24, 0xBF	; 191
    1c44:	8b b9       	out	0x0b, r24	; 11
			PORTD |= (1 << PD4);
    1c46:	8b b1       	in	r24, 0x0b	; 11
    1c48:	80 61       	ori	r24, 0x10	; 16
    1c4a:	8b b9       	out	0x0b, r24	; 11
    1c4c:	4f ef       	ldi	r20, 0xFF	; 255
    1c4e:	80 e7       	ldi	r24, 0x70	; 112
    1c50:	92 e0       	ldi	r25, 0x02	; 2
    1c52:	41 50       	subi	r20, 0x01	; 1
    1c54:	80 40       	sbci	r24, 0x00	; 0
    1c56:	90 40       	sbci	r25, 0x00	; 0
    1c58:	e1 f7       	brne	.-8      	; 0x1c52 <mover_plotter+0xa4>
    1c5a:	00 c0       	rjmp	.+0      	; 0x1c5c <mover_plotter+0xae>
    1c5c:	00 00       	nop
			_delay_ms(50);
			PORTD &= ~(1 << PD4);
    1c5e:	8b b1       	in	r24, 0x0b	; 11
    1c60:	8f 7e       	andi	r24, 0xEF	; 239
    1c62:	8b b9       	out	0x0b, r24	; 11
			PORTD |= (1 << PD6);
    1c64:	8b b1       	in	r24, 0x0b	; 11
    1c66:	80 64       	ori	r24, 0x40	; 64
    1c68:	8b b9       	out	0x0b, r24	; 11
    1c6a:	4f ef       	ldi	r20, 0xFF	; 255
    1c6c:	80 e7       	ldi	r24, 0x70	; 112
    1c6e:	92 e0       	ldi	r25, 0x02	; 2
    1c70:	41 50       	subi	r20, 0x01	; 1
    1c72:	80 40       	sbci	r24, 0x00	; 0
    1c74:	90 40       	sbci	r25, 0x00	; 0
    1c76:	e1 f7       	brne	.-8      	; 0x1c70 <mover_plotter+0xc2>
    1c78:	00 c0       	rjmp	.+0      	; 0x1c7a <mover_plotter+0xcc>
    1c7a:	00 00       	nop
		PORTD |= (1 << PD7);
		_delay_ms(1000);
		PORTD &= ~(1 << PD7);
		break;
		case 4:  // Mover hacia abajo-izquierda (diagonal)
		for(int i = 0; i < 10; i++){
    1c7c:	2f 5f       	subi	r18, 0xFF	; 255
    1c7e:	3f 4f       	sbci	r19, 0xFF	; 255
    1c80:	02 c0       	rjmp	.+4      	; 0x1c86 <mover_plotter+0xd8>
	}
}

// Función para mover el plóter en las direcciones X e Y
void mover_plotter(int dir) {
	switch (dir) {
    1c82:	20 e0       	ldi	r18, 0x00	; 0
    1c84:	30 e0       	ldi	r19, 0x00	; 0
		PORTD |= (1 << PD7);
		_delay_ms(1000);
		PORTD &= ~(1 << PD7);
		break;
		case 4:  // Mover hacia abajo-izquierda (diagonal)
		for(int i = 0; i < 10; i++){
    1c86:	2a 30       	cpi	r18, 0x0A	; 10
    1c88:	31 05       	cpc	r19, r1
    1c8a:	d4 f2       	brlt	.-76     	; 0x1c40 <mover_plotter+0x92>
			_delay_ms(50);
			PORTD &= ~(1 << PD4);
			PORTD |= (1 << PD6);
			_delay_ms(50);
		}
		PORTD &= (~(1 << PD4) & ~(1 << PD6));
    1c8c:	8b b1       	in	r24, 0x0b	; 11
    1c8e:	8f 7a       	andi	r24, 0xAF	; 175
    1c90:	8b b9       	out	0x0b, r24	; 11
		break;
    1c92:	08 95       	ret
		case 5:  // Mover hacia abajo-derecha (diagonal)
		for(int i = 0; i < 10; i++){
			PORTD &= ~(1 << PD7);
    1c94:	8b b1       	in	r24, 0x0b	; 11
    1c96:	8f 77       	andi	r24, 0x7F	; 127
    1c98:	8b b9       	out	0x0b, r24	; 11
			PORTD |= (1 << PD4);
    1c9a:	8b b1       	in	r24, 0x0b	; 11
    1c9c:	80 61       	ori	r24, 0x10	; 16
    1c9e:	8b b9       	out	0x0b, r24	; 11
    1ca0:	4f ef       	ldi	r20, 0xFF	; 255
    1ca2:	80 e7       	ldi	r24, 0x70	; 112
    1ca4:	92 e0       	ldi	r25, 0x02	; 2
    1ca6:	41 50       	subi	r20, 0x01	; 1
    1ca8:	80 40       	sbci	r24, 0x00	; 0
    1caa:	90 40       	sbci	r25, 0x00	; 0
    1cac:	e1 f7       	brne	.-8      	; 0x1ca6 <mover_plotter+0xf8>
    1cae:	00 c0       	rjmp	.+0      	; 0x1cb0 <mover_plotter+0x102>
    1cb0:	00 00       	nop
			_delay_ms(50);
			PORTD &= ~(1 << PD4);
    1cb2:	8b b1       	in	r24, 0x0b	; 11
    1cb4:	8f 7e       	andi	r24, 0xEF	; 239
    1cb6:	8b b9       	out	0x0b, r24	; 11
			PORTD |= (1 << PD7);
    1cb8:	8b b1       	in	r24, 0x0b	; 11
    1cba:	80 68       	ori	r24, 0x80	; 128
    1cbc:	8b b9       	out	0x0b, r24	; 11
    1cbe:	4f ef       	ldi	r20, 0xFF	; 255
    1cc0:	80 e7       	ldi	r24, 0x70	; 112
    1cc2:	92 e0       	ldi	r25, 0x02	; 2
    1cc4:	41 50       	subi	r20, 0x01	; 1
    1cc6:	80 40       	sbci	r24, 0x00	; 0
    1cc8:	90 40       	sbci	r25, 0x00	; 0
    1cca:	e1 f7       	brne	.-8      	; 0x1cc4 <mover_plotter+0x116>
    1ccc:	00 c0       	rjmp	.+0      	; 0x1cce <mover_plotter+0x120>
    1cce:	00 00       	nop
			_delay_ms(50);
		}
		PORTD &= (~(1 << PD4) & ~(1 << PD6));
		break;
		case 5:  // Mover hacia abajo-derecha (diagonal)
		for(int i = 0; i < 10; i++){
    1cd0:	2f 5f       	subi	r18, 0xFF	; 255
    1cd2:	3f 4f       	sbci	r19, 0xFF	; 255
    1cd4:	02 c0       	rjmp	.+4      	; 0x1cda <mover_plotter+0x12c>
	}
}

// Función para mover el plóter en las direcciones X e Y
void mover_plotter(int dir) {
	switch (dir) {
    1cd6:	20 e0       	ldi	r18, 0x00	; 0
    1cd8:	30 e0       	ldi	r19, 0x00	; 0
			_delay_ms(50);
		}
		PORTD &= (~(1 << PD4) & ~(1 << PD6));
		break;
		case 5:  // Mover hacia abajo-derecha (diagonal)
		for(int i = 0; i < 10; i++){
    1cda:	2a 30       	cpi	r18, 0x0A	; 10
    1cdc:	31 05       	cpc	r19, r1
    1cde:	d4 f2       	brlt	.-76     	; 0x1c94 <mover_plotter+0xe6>
			_delay_ms(50);
			PORTD &= ~(1 << PD4);
			PORTD |= (1 << PD7);
			_delay_ms(50);
		}
		PORTD &= (~(1 << PD4) & ~(1 << PD7));
    1ce0:	8b b1       	in	r24, 0x0b	; 11
    1ce2:	8f 76       	andi	r24, 0x6F	; 111
    1ce4:	8b b9       	out	0x0b, r24	; 11
		break;
    1ce6:	08 95       	ret
		case 6:  // Mover hacia arriba-izquierda (diagonal)
		for(int i = 0; i < 10; i++){
			PORTD &= ~(1 << PD6);
    1ce8:	8b b1       	in	r24, 0x0b	; 11
    1cea:	8f 7b       	andi	r24, 0xBF	; 191
    1cec:	8b b9       	out	0x0b, r24	; 11
			PORTD |= (1 << PD5);
    1cee:	8b b1       	in	r24, 0x0b	; 11
    1cf0:	80 62       	ori	r24, 0x20	; 32
    1cf2:	8b b9       	out	0x0b, r24	; 11
    1cf4:	4f ef       	ldi	r20, 0xFF	; 255
    1cf6:	80 e7       	ldi	r24, 0x70	; 112
    1cf8:	92 e0       	ldi	r25, 0x02	; 2
    1cfa:	41 50       	subi	r20, 0x01	; 1
    1cfc:	80 40       	sbci	r24, 0x00	; 0
    1cfe:	90 40       	sbci	r25, 0x00	; 0
    1d00:	e1 f7       	brne	.-8      	; 0x1cfa <mover_plotter+0x14c>
    1d02:	00 c0       	rjmp	.+0      	; 0x1d04 <mover_plotter+0x156>
    1d04:	00 00       	nop
			_delay_ms(50);
			PORTD &= ~(1 << PD5);
    1d06:	8b b1       	in	r24, 0x0b	; 11
    1d08:	8f 7d       	andi	r24, 0xDF	; 223
    1d0a:	8b b9       	out	0x0b, r24	; 11
			PORTD |= (1 << PD6);
    1d0c:	8b b1       	in	r24, 0x0b	; 11
    1d0e:	80 64       	ori	r24, 0x40	; 64
    1d10:	8b b9       	out	0x0b, r24	; 11
    1d12:	4f ef       	ldi	r20, 0xFF	; 255
    1d14:	80 e7       	ldi	r24, 0x70	; 112
    1d16:	92 e0       	ldi	r25, 0x02	; 2
    1d18:	41 50       	subi	r20, 0x01	; 1
    1d1a:	80 40       	sbci	r24, 0x00	; 0
    1d1c:	90 40       	sbci	r25, 0x00	; 0
    1d1e:	e1 f7       	brne	.-8      	; 0x1d18 <mover_plotter+0x16a>
    1d20:	00 c0       	rjmp	.+0      	; 0x1d22 <mover_plotter+0x174>
    1d22:	00 00       	nop
			_delay_ms(50);
		}
		PORTD &= (~(1 << PD4) & ~(1 << PD7));
		break;
		case 6:  // Mover hacia arriba-izquierda (diagonal)
		for(int i = 0; i < 10; i++){
    1d24:	2f 5f       	subi	r18, 0xFF	; 255
    1d26:	3f 4f       	sbci	r19, 0xFF	; 255
    1d28:	02 c0       	rjmp	.+4      	; 0x1d2e <mover_plotter+0x180>
	}
}

// Función para mover el plóter en las direcciones X e Y
void mover_plotter(int dir) {
	switch (dir) {
    1d2a:	20 e0       	ldi	r18, 0x00	; 0
    1d2c:	30 e0       	ldi	r19, 0x00	; 0
			_delay_ms(50);
		}
		PORTD &= (~(1 << PD4) & ~(1 << PD7));
		break;
		case 6:  // Mover hacia arriba-izquierda (diagonal)
		for(int i = 0; i < 10; i++){
    1d2e:	2a 30       	cpi	r18, 0x0A	; 10
    1d30:	31 05       	cpc	r19, r1
    1d32:	d4 f2       	brlt	.-76     	; 0x1ce8 <mover_plotter+0x13a>
			_delay_ms(50);
			PORTD &= ~(1 << PD5);
			PORTD |= (1 << PD6);
			_delay_ms(50);
		}
		PORTD &= (~(1 << PD5) & ~(1 << PD6));
    1d34:	8b b1       	in	r24, 0x0b	; 11
    1d36:	8f 79       	andi	r24, 0x9F	; 159
    1d38:	8b b9       	out	0x0b, r24	; 11
		break;
    1d3a:	08 95       	ret
		case 7:  // Mover hacia arriba-derecha (diagonal)
		for(int i = 0; i < 10; i++){
			PORTD &= ~(1 << PD7);
    1d3c:	8b b1       	in	r24, 0x0b	; 11
    1d3e:	8f 77       	andi	r24, 0x7F	; 127
    1d40:	8b b9       	out	0x0b, r24	; 11
			PORTD |= (1 << PD5);
    1d42:	8b b1       	in	r24, 0x0b	; 11
    1d44:	80 62       	ori	r24, 0x20	; 32
    1d46:	8b b9       	out	0x0b, r24	; 11
    1d48:	4f ef       	ldi	r20, 0xFF	; 255
    1d4a:	80 e7       	ldi	r24, 0x70	; 112
    1d4c:	92 e0       	ldi	r25, 0x02	; 2
    1d4e:	41 50       	subi	r20, 0x01	; 1
    1d50:	80 40       	sbci	r24, 0x00	; 0
    1d52:	90 40       	sbci	r25, 0x00	; 0
    1d54:	e1 f7       	brne	.-8      	; 0x1d4e <mover_plotter+0x1a0>
    1d56:	00 c0       	rjmp	.+0      	; 0x1d58 <mover_plotter+0x1aa>
    1d58:	00 00       	nop
			_delay_ms(50);
			PORTD &= ~(1 << PD5);
    1d5a:	8b b1       	in	r24, 0x0b	; 11
    1d5c:	8f 7d       	andi	r24, 0xDF	; 223
    1d5e:	8b b9       	out	0x0b, r24	; 11
			PORTD |= (1 << PD7);
    1d60:	8b b1       	in	r24, 0x0b	; 11
    1d62:	80 68       	ori	r24, 0x80	; 128
    1d64:	8b b9       	out	0x0b, r24	; 11
    1d66:	4f ef       	ldi	r20, 0xFF	; 255
    1d68:	80 e7       	ldi	r24, 0x70	; 112
    1d6a:	92 e0       	ldi	r25, 0x02	; 2
    1d6c:	41 50       	subi	r20, 0x01	; 1
    1d6e:	80 40       	sbci	r24, 0x00	; 0
    1d70:	90 40       	sbci	r25, 0x00	; 0
    1d72:	e1 f7       	brne	.-8      	; 0x1d6c <mover_plotter+0x1be>
    1d74:	00 c0       	rjmp	.+0      	; 0x1d76 <mover_plotter+0x1c8>
    1d76:	00 00       	nop
			_delay_ms(50);
		}
		PORTD &= (~(1 << PD5) & ~(1 << PD6));
		break;
		case 7:  // Mover hacia arriba-derecha (diagonal)
		for(int i = 0; i < 10; i++){
    1d78:	2f 5f       	subi	r18, 0xFF	; 255
    1d7a:	3f 4f       	sbci	r19, 0xFF	; 255
    1d7c:	02 c0       	rjmp	.+4      	; 0x1d82 <mover_plotter+0x1d4>
	}
}

// Función para mover el plóter en las direcciones X e Y
void mover_plotter(int dir) {
	switch (dir) {
    1d7e:	20 e0       	ldi	r18, 0x00	; 0
    1d80:	30 e0       	ldi	r19, 0x00	; 0
			_delay_ms(50);
		}
		PORTD &= (~(1 << PD5) & ~(1 << PD6));
		break;
		case 7:  // Mover hacia arriba-derecha (diagonal)
		for(int i = 0; i < 10; i++){
    1d82:	2a 30       	cpi	r18, 0x0A	; 10
    1d84:	31 05       	cpc	r19, r1
    1d86:	d4 f2       	brlt	.-76     	; 0x1d3c <mover_plotter+0x18e>
			_delay_ms(50);
			PORTD &= ~(1 << PD5);
			PORTD |= (1 << PD7);
			_delay_ms(50);
		}
		PORTD &= (~(1 << PD5) & ~(1 << PD7));
    1d88:	8b b1       	in	r24, 0x0b	; 11
    1d8a:	8f 75       	andi	r24, 0x5F	; 95
    1d8c:	8b b9       	out	0x0b, r24	; 11
		break;
    1d8e:	08 95       	ret
		case 10:  // Mover hacia abajo
		PORTD |= (1 << PD4);  // Activar PD4 (Abajo)
    1d90:	8b b1       	in	r24, 0x0b	; 11
    1d92:	80 61       	ori	r24, 0x10	; 16
    1d94:	8b b9       	out	0x0b, r24	; 11
    1d96:	2f ef       	ldi	r18, 0xFF	; 255
    1d98:	40 e7       	ldi	r20, 0x70	; 112
    1d9a:	82 e0       	ldi	r24, 0x02	; 2
    1d9c:	21 50       	subi	r18, 0x01	; 1
    1d9e:	40 40       	sbci	r20, 0x00	; 0
    1da0:	80 40       	sbci	r24, 0x00	; 0
    1da2:	e1 f7       	brne	.-8      	; 0x1d9c <mover_plotter+0x1ee>
    1da4:	00 c0       	rjmp	.+0      	; 0x1da6 <mover_plotter+0x1f8>
    1da6:	00 00       	nop
		_delay_ms(50);
		PORTD &= ~(1 << PD4); // Desactivar PD4
    1da8:	8b b1       	in	r24, 0x0b	; 11
    1daa:	8f 7e       	andi	r24, 0xEF	; 239
    1dac:	8b b9       	out	0x0b, r24	; 11
		break;
    1dae:	08 95       	ret
		case 11:  // Mover hacia arriba
		PORTD |= (1 << PD5);  // Activar PD5 (Arriba)
    1db0:	8b b1       	in	r24, 0x0b	; 11
    1db2:	80 62       	ori	r24, 0x20	; 32
    1db4:	8b b9       	out	0x0b, r24	; 11
    1db6:	9f ef       	ldi	r25, 0xFF	; 255
    1db8:	20 e7       	ldi	r18, 0x70	; 112
    1dba:	42 e0       	ldi	r20, 0x02	; 2
    1dbc:	91 50       	subi	r25, 0x01	; 1
    1dbe:	20 40       	sbci	r18, 0x00	; 0
    1dc0:	40 40       	sbci	r20, 0x00	; 0
    1dc2:	e1 f7       	brne	.-8      	; 0x1dbc <mover_plotter+0x20e>
    1dc4:	00 c0       	rjmp	.+0      	; 0x1dc6 <mover_plotter+0x218>
    1dc6:	00 00       	nop
		_delay_ms(50);
		PORTD &= ~(1 << PD5); // Desactivar PD5
    1dc8:	8b b1       	in	r24, 0x0b	; 11
    1dca:	8f 7d       	andi	r24, 0xDF	; 223
    1dcc:	8b b9       	out	0x0b, r24	; 11
		break;
    1dce:	08 95       	ret
		case 12:  // Mover hacia la izquierda
		PORTD |= (1 << PD6);  // Activar PD6 (Izquierda)
    1dd0:	8b b1       	in	r24, 0x0b	; 11
    1dd2:	80 64       	ori	r24, 0x40	; 64
    1dd4:	8b b9       	out	0x0b, r24	; 11
    1dd6:	8f ef       	ldi	r24, 0xFF	; 255
    1dd8:	90 e7       	ldi	r25, 0x70	; 112
    1dda:	22 e0       	ldi	r18, 0x02	; 2
    1ddc:	81 50       	subi	r24, 0x01	; 1
    1dde:	90 40       	sbci	r25, 0x00	; 0
    1de0:	20 40       	sbci	r18, 0x00	; 0
    1de2:	e1 f7       	brne	.-8      	; 0x1ddc <mover_plotter+0x22e>
    1de4:	00 c0       	rjmp	.+0      	; 0x1de6 <mover_plotter+0x238>
    1de6:	00 00       	nop
		_delay_ms(50);
		PORTD &= ~(1 << PD6); // Desactivar PD6
    1de8:	8b b1       	in	r24, 0x0b	; 11
    1dea:	8f 7b       	andi	r24, 0xBF	; 191
    1dec:	8b b9       	out	0x0b, r24	; 11
		break;
    1dee:	08 95       	ret
		case 13:  // Mover hacia la derecha
		PORTD |= (1 << PD7);  // Activar PD7 (Derecha)
    1df0:	8b b1       	in	r24, 0x0b	; 11
    1df2:	80 68       	ori	r24, 0x80	; 128
    1df4:	8b b9       	out	0x0b, r24	; 11
    1df6:	4f ef       	ldi	r20, 0xFF	; 255
    1df8:	80 e7       	ldi	r24, 0x70	; 112
    1dfa:	92 e0       	ldi	r25, 0x02	; 2
    1dfc:	41 50       	subi	r20, 0x01	; 1
    1dfe:	80 40       	sbci	r24, 0x00	; 0
    1e00:	90 40       	sbci	r25, 0x00	; 0
    1e02:	e1 f7       	brne	.-8      	; 0x1dfc <mover_plotter+0x24e>
    1e04:	00 c0       	rjmp	.+0      	; 0x1e06 <mover_plotter+0x258>
    1e06:	00 00       	nop
		_delay_ms(50);
		PORTD &= ~(1 << PD7); // Desactivar PD7
    1e08:	8b b1       	in	r24, 0x0b	; 11
    1e0a:	8f 77       	andi	r24, 0x7F	; 127
    1e0c:	8b b9       	out	0x0b, r24	; 11
    1e0e:	08 95       	ret

Disassembly of section .text.Centrar:

00002c7e <Centrar>:
		break;
	}
}

void Centrar(){
	mover_plotter(2);
    2c7e:	82 e0       	ldi	r24, 0x02	; 2
    2c80:	90 e0       	ldi	r25, 0x00	; 0
    2c82:	0e 94 d7 0d 	call	0x1bae	; 0x1bae <mover_plotter>
	mover_plotter(2);
    2c86:	82 e0       	ldi	r24, 0x02	; 2
    2c88:	90 e0       	ldi	r25, 0x00	; 0
    2c8a:	0e 94 d7 0d 	call	0x1bae	; 0x1bae <mover_plotter>
	mover_plotter(2);
    2c8e:	82 e0       	ldi	r24, 0x02	; 2
    2c90:	90 e0       	ldi	r25, 0x00	; 0
    2c92:	0e 94 d7 0d 	call	0x1bae	; 0x1bae <mover_plotter>
	mover_plotter(2);
    2c96:	82 e0       	ldi	r24, 0x02	; 2
    2c98:	90 e0       	ldi	r25, 0x00	; 0
    2c9a:	0e 94 d7 0d 	call	0x1bae	; 0x1bae <mover_plotter>
	mover_plotter(2);
    2c9e:	82 e0       	ldi	r24, 0x02	; 2
    2ca0:	90 e0       	ldi	r25, 0x00	; 0
    2ca2:	0e 94 d7 0d 	call	0x1bae	; 0x1bae <mover_plotter>

	mover_plotter(2);
    2ca6:	82 e0       	ldi	r24, 0x02	; 2
    2ca8:	90 e0       	ldi	r25, 0x00	; 0
    2caa:	0e 94 d7 0d 	call	0x1bae	; 0x1bae <mover_plotter>
	mover_plotter(2);
    2cae:	82 e0       	ldi	r24, 0x02	; 2
    2cb0:	90 e0       	ldi	r25, 0x00	; 0
    2cb2:	0e 94 d7 0d 	call	0x1bae	; 0x1bae <mover_plotter>
	mover_plotter(2);
    2cb6:	82 e0       	ldi	r24, 0x02	; 2
    2cb8:	90 e0       	ldi	r25, 0x00	; 0
    2cba:	0e 94 d7 0d 	call	0x1bae	; 0x1bae <mover_plotter>
	mover_plotter(2);
    2cbe:	82 e0       	ldi	r24, 0x02	; 2
    2cc0:	90 e0       	ldi	r25, 0x00	; 0
    2cc2:	0e 94 d7 0d 	call	0x1bae	; 0x1bae <mover_plotter>
	mover_plotter(2);
    2cc6:	82 e0       	ldi	r24, 0x02	; 2
    2cc8:	90 e0       	ldi	r25, 0x00	; 0
    2cca:	0e 94 d7 0d 	call	0x1bae	; 0x1bae <mover_plotter>

	mover_plotter(0);
    2cce:	80 e0       	ldi	r24, 0x00	; 0
    2cd0:	90 e0       	ldi	r25, 0x00	; 0
    2cd2:	0e 94 d7 0d 	call	0x1bae	; 0x1bae <mover_plotter>
	mover_plotter(0);
    2cd6:	80 e0       	ldi	r24, 0x00	; 0
    2cd8:	90 e0       	ldi	r25, 0x00	; 0
    2cda:	0e 94 d7 0d 	call	0x1bae	; 0x1bae <mover_plotter>
	mover_plotter(0);
    2cde:	80 e0       	ldi	r24, 0x00	; 0
    2ce0:	90 e0       	ldi	r25, 0x00	; 0
    2ce2:	0e 94 d7 0d 	call	0x1bae	; 0x1bae <mover_plotter>
	mover_plotter(0);
    2ce6:	80 e0       	ldi	r24, 0x00	; 0
    2ce8:	90 e0       	ldi	r25, 0x00	; 0
    2cea:	0e 94 d7 0d 	call	0x1bae	; 0x1bae <mover_plotter>
	mover_plotter(0);
    2cee:	80 e0       	ldi	r24, 0x00	; 0
    2cf0:	90 e0       	ldi	r25, 0x00	; 0
    2cf2:	0e 94 d7 0d 	call	0x1bae	; 0x1bae <mover_plotter>

	mover_plotter(0);
    2cf6:	80 e0       	ldi	r24, 0x00	; 0
    2cf8:	90 e0       	ldi	r25, 0x00	; 0
    2cfa:	0e 94 d7 0d 	call	0x1bae	; 0x1bae <mover_plotter>
	mover_plotter(0);
    2cfe:	80 e0       	ldi	r24, 0x00	; 0
    2d00:	90 e0       	ldi	r25, 0x00	; 0
    2d02:	0e 94 d7 0d 	call	0x1bae	; 0x1bae <mover_plotter>
	mover_plotter(0);
    2d06:	80 e0       	ldi	r24, 0x00	; 0
    2d08:	90 e0       	ldi	r25, 0x00	; 0
    2d0a:	0e 94 d7 0d 	call	0x1bae	; 0x1bae <mover_plotter>
	mover_plotter(0);
    2d0e:	80 e0       	ldi	r24, 0x00	; 0
    2d10:	90 e0       	ldi	r25, 0x00	; 0
    2d12:	0e 94 d7 0d 	call	0x1bae	; 0x1bae <mover_plotter>
	mover_plotter(0);
    2d16:	80 e0       	ldi	r24, 0x00	; 0
    2d18:	90 e0       	ldi	r25, 0x00	; 0
    2d1a:	0e 94 d7 0d 	call	0x1bae	; 0x1bae <mover_plotter>
    2d1e:	08 95       	ret

Disassembly of section .text.dibujar_circulo:

00002648 <dibujar_circulo>:
}

void dibujar_circulo() {
    2648:	cf 92       	push	r12
    264a:	df 92       	push	r13
    264c:	ef 92       	push	r14
    264e:	ff 92       	push	r15
    2650:	cf 93       	push	r28
    2652:	df 93       	push	r29
	Centrar();
    2654:	0e 94 3f 16 	call	0x2c7e	; 0x2c7e <Centrar>
	mover_solenoide(1);
    2658:	81 e0       	ldi	r24, 0x01	; 1
    265a:	90 e0       	ldi	r25, 0x00	; 0
    265c:	0e 94 22 18 	call	0x3044	; 0x3044 <mover_solenoide>
    2660:	2f ef       	ldi	r18, 0xFF	; 255
    2662:	8d e3       	ldi	r24, 0x3D	; 61
    2664:	99 e4       	ldi	r25, 0x49	; 73
    2666:	21 50       	subi	r18, 0x01	; 1
    2668:	80 40       	sbci	r24, 0x00	; 0
    266a:	90 40       	sbci	r25, 0x00	; 0
    266c:	e1 f7       	brne	.-8      	; 0x2666 <dibujar_circulo+0x1e>
    266e:	00 c0       	rjmp	.+0      	; 0x2670 <dibujar_circulo+0x28>
    2670:	00 00       	nop
	_delay_ms(1500);
	int radio = 20;
	// Aumentar la resolución usando más puntos
	for (double angle = 0; angle < 2 * M_PI; angle += 0.01) { // Incrementar el ángulo
    2672:	c1 2c       	mov	r12, r1
    2674:	d1 2c       	mov	r13, r1
    2676:	76 01       	movw	r14, r12
    2678:	52 c0       	rjmp	.+164    	; 0x271e <dibujar_circulo+0xd6>
		int x = (int)(radio * cos(angle));
    267a:	c7 01       	movw	r24, r14
    267c:	b6 01       	movw	r22, r12
    267e:	0e 94 d6 11 	call	0x23ac	; 0x23ac <cosf>
    2682:	20 e0       	ldi	r18, 0x00	; 0
    2684:	30 e0       	ldi	r19, 0x00	; 0
    2686:	40 ea       	ldi	r20, 0xA0	; 160
    2688:	51 e4       	ldi	r21, 0x41	; 65
    268a:	0e 94 c9 18 	call	0x3192	; 0x3192 <__mulsf3>
    268e:	0e 94 93 18 	call	0x3126	; 0x3126 <__fixsfsi>
    2692:	eb 01       	movw	r28, r22
		int y = (int)(radio * sin(angle));
    2694:	c7 01       	movw	r24, r14
    2696:	b6 01       	movw	r22, r12
    2698:	0e 94 23 10 	call	0x2046	; 0x2046 <sinf>
    269c:	20 e0       	ldi	r18, 0x00	; 0
    269e:	30 e0       	ldi	r19, 0x00	; 0
    26a0:	40 ea       	ldi	r20, 0xA0	; 160
    26a2:	51 e4       	ldi	r21, 0x41	; 65
    26a4:	0e 94 c9 18 	call	0x3192	; 0x3192 <__mulsf3>
    26a8:	0e 94 93 18 	call	0x3126	; 0x3126 <__fixsfsi>

		// Dibujar punto en la posición (x, y)
		if (x >= 0 && y >= 0) {
    26ac:	dd 23       	and	r29, r29
    26ae:	5c f0       	brlt	.+22     	; 0x26c6 <dibujar_circulo+0x7e>
    26b0:	77 23       	and	r23, r23
    26b2:	4c f0       	brlt	.+18     	; 0x26c6 <dibujar_circulo+0x7e>
			mover_plotter(13);
    26b4:	8d e0       	ldi	r24, 0x0D	; 13
    26b6:	90 e0       	ldi	r25, 0x00	; 0
    26b8:	0e 94 d7 0d 	call	0x1bae	; 0x1bae <mover_plotter>
			mover_plotter(11);
    26bc:	8b e0       	ldi	r24, 0x0B	; 11
    26be:	90 e0       	ldi	r25, 0x00	; 0
    26c0:	0e 94 d7 0d 	call	0x1bae	; 0x1bae <mover_plotter>
    26c4:	22 c0       	rjmp	.+68     	; 0x270a <dibujar_circulo+0xc2>
			} else if (x < 0 && y >= 0) {
    26c6:	dd 23       	and	r29, r29
    26c8:	5c f4       	brge	.+22     	; 0x26e0 <dibujar_circulo+0x98>
    26ca:	77 23       	and	r23, r23
    26cc:	4c f0       	brlt	.+18     	; 0x26e0 <dibujar_circulo+0x98>
			mover_plotter(12);
    26ce:	8c e0       	ldi	r24, 0x0C	; 12
    26d0:	90 e0       	ldi	r25, 0x00	; 0
    26d2:	0e 94 d7 0d 	call	0x1bae	; 0x1bae <mover_plotter>
			mover_plotter(11);
    26d6:	8b e0       	ldi	r24, 0x0B	; 11
    26d8:	90 e0       	ldi	r25, 0x00	; 0
    26da:	0e 94 d7 0d 	call	0x1bae	; 0x1bae <mover_plotter>
    26de:	15 c0       	rjmp	.+42     	; 0x270a <dibujar_circulo+0xc2>
			} else if (x >= 0 && y < 0) {
    26e0:	dd 23       	and	r29, r29
    26e2:	5c f0       	brlt	.+22     	; 0x26fa <dibujar_circulo+0xb2>
    26e4:	77 23       	and	r23, r23
    26e6:	4c f4       	brge	.+18     	; 0x26fa <dibujar_circulo+0xb2>
			mover_plotter(13);
    26e8:	8d e0       	ldi	r24, 0x0D	; 13
    26ea:	90 e0       	ldi	r25, 0x00	; 0
    26ec:	0e 94 d7 0d 	call	0x1bae	; 0x1bae <mover_plotter>
			mover_plotter(10);
    26f0:	8a e0       	ldi	r24, 0x0A	; 10
    26f2:	90 e0       	ldi	r25, 0x00	; 0
    26f4:	0e 94 d7 0d 	call	0x1bae	; 0x1bae <mover_plotter>
    26f8:	08 c0       	rjmp	.+16     	; 0x270a <dibujar_circulo+0xc2>
			} else {
			mover_plotter(12);
    26fa:	8c e0       	ldi	r24, 0x0C	; 12
    26fc:	90 e0       	ldi	r25, 0x00	; 0
    26fe:	0e 94 d7 0d 	call	0x1bae	; 0x1bae <mover_plotter>
			mover_plotter(10);
    2702:	8a e0       	ldi	r24, 0x0A	; 10
    2704:	90 e0       	ldi	r25, 0x00	; 0
    2706:	0e 94 d7 0d 	call	0x1bae	; 0x1bae <mover_plotter>
	Centrar();
	mover_solenoide(1);
	_delay_ms(1500);
	int radio = 20;
	// Aumentar la resolución usando más puntos
	for (double angle = 0; angle < 2 * M_PI; angle += 0.01) { // Incrementar el ángulo
    270a:	2a e0       	ldi	r18, 0x0A	; 10
    270c:	37 ed       	ldi	r19, 0xD7	; 215
    270e:	43 e2       	ldi	r20, 0x23	; 35
    2710:	5c e3       	ldi	r21, 0x3C	; 60
    2712:	c7 01       	movw	r24, r14
    2714:	b6 01       	movw	r22, r12
    2716:	0e 94 8d 18 	call	0x311a	; 0x311a <__addsf3>
    271a:	6b 01       	movw	r12, r22
    271c:	7c 01       	movw	r14, r24
    271e:	2b ed       	ldi	r18, 0xDB	; 219
    2720:	3f e0       	ldi	r19, 0x0F	; 15
    2722:	49 ec       	ldi	r20, 0xC9	; 201
    2724:	50 e4       	ldi	r21, 0x40	; 64
    2726:	c7 01       	movw	r24, r14
    2728:	b6 01       	movw	r22, r12
    272a:	0e 94 bb 18 	call	0x3176	; 0x3176 <__cmpsf2>
    272e:	88 23       	and	r24, r24
    2730:	0c f4       	brge	.+2      	; 0x2734 <dibujar_circulo+0xec>
    2732:	a3 cf       	rjmp	.-186    	; 0x267a <dibujar_circulo+0x32>
			} else {
			mover_plotter(12);
			mover_plotter(10);
		}
	}
	mover_solenoide(0);
    2734:	80 e0       	ldi	r24, 0x00	; 0
    2736:	90 e0       	ldi	r25, 0x00	; 0
    2738:	0e 94 22 18 	call	0x3044	; 0x3044 <mover_solenoide>
}
    273c:	df 91       	pop	r29
    273e:	cf 91       	pop	r28
    2740:	ff 90       	pop	r15
    2742:	ef 90       	pop	r14
    2744:	df 90       	pop	r13
    2746:	cf 90       	pop	r12
    2748:	08 95       	ret

Disassembly of section .text.dibujar_Flor:

0000274a <dibujar_Flor>:

void dibujar_Flor(){
	Centrar();
    274a:	0e 94 3f 16 	call	0x2c7e	; 0x2c7e <Centrar>
	mover_solenoide(1);  // Bajar solenoide
    274e:	81 e0       	ldi	r24, 0x01	; 1
    2750:	90 e0       	ldi	r25, 0x00	; 0
    2752:	0e 94 22 18 	call	0x3044	; 0x3044 <mover_solenoide>
    2756:	2f ef       	ldi	r18, 0xFF	; 255
    2758:	8d e3       	ldi	r24, 0x3D	; 61
    275a:	99 e4       	ldi	r25, 0x49	; 73
    275c:	21 50       	subi	r18, 0x01	; 1
    275e:	80 40       	sbci	r24, 0x00	; 0
    2760:	90 40       	sbci	r25, 0x00	; 0
    2762:	e1 f7       	brne	.-8      	; 0x275c <dibujar_Flor+0x12>
    2764:	00 c0       	rjmp	.+0      	; 0x2766 <dibujar_Flor+0x1c>
    2766:	00 00       	nop
	_delay_ms(1500);
	// Secuencia de movimientos del plóter
	mover_plotter(1);
    2768:	81 e0       	ldi	r24, 0x01	; 1
    276a:	90 e0       	ldi	r25, 0x00	; 0
    276c:	0e 94 d7 0d 	call	0x1bae	; 0x1bae <mover_plotter>
	mover_plotter(2);
    2770:	82 e0       	ldi	r24, 0x02	; 2
    2772:	90 e0       	ldi	r25, 0x00	; 0
    2774:	0e 94 d7 0d 	call	0x1bae	; 0x1bae <mover_plotter>
	mover_plotter(7);
    2778:	87 e0       	ldi	r24, 0x07	; 7
    277a:	90 e0       	ldi	r25, 0x00	; 0
    277c:	0e 94 d7 0d 	call	0x1bae	; 0x1bae <mover_plotter>
	mover_plotter(6);
    2780:	86 e0       	ldi	r24, 0x06	; 6
    2782:	90 e0       	ldi	r25, 0x00	; 0
    2784:	0e 94 d7 0d 	call	0x1bae	; 0x1bae <mover_plotter>
	mover_plotter(3);
    2788:	83 e0       	ldi	r24, 0x03	; 3
    278a:	90 e0       	ldi	r25, 0x00	; 0
    278c:	0e 94 d7 0d 	call	0x1bae	; 0x1bae <mover_plotter>
	mover_plotter(1);
    2790:	81 e0       	ldi	r24, 0x01	; 1
    2792:	90 e0       	ldi	r25, 0x00	; 0
    2794:	0e 94 d7 0d 	call	0x1bae	; 0x1bae <mover_plotter>
	mover_plotter(5);
    2798:	85 e0       	ldi	r24, 0x05	; 5
    279a:	90 e0       	ldi	r25, 0x00	; 0
    279c:	0e 94 d7 0d 	call	0x1bae	; 0x1bae <mover_plotter>
	mover_plotter(7);
    27a0:	87 e0       	ldi	r24, 0x07	; 7
    27a2:	90 e0       	ldi	r25, 0x00	; 0
    27a4:	0e 94 d7 0d 	call	0x1bae	; 0x1bae <mover_plotter>
	mover_plotter(0);
    27a8:	80 e0       	ldi	r24, 0x00	; 0
    27aa:	90 e0       	ldi	r25, 0x00	; 0
    27ac:	0e 94 d7 0d 	call	0x1bae	; 0x1bae <mover_plotter>
	mover_plotter(3);
    27b0:	83 e0       	ldi	r24, 0x03	; 3
    27b2:	90 e0       	ldi	r25, 0x00	; 0
    27b4:	0e 94 d7 0d 	call	0x1bae	; 0x1bae <mover_plotter>
	mover_plotter(4);
    27b8:	84 e0       	ldi	r24, 0x04	; 4
    27ba:	90 e0       	ldi	r25, 0x00	; 0
    27bc:	0e 94 d7 0d 	call	0x1bae	; 0x1bae <mover_plotter>
	mover_plotter(5);
    27c0:	85 e0       	ldi	r24, 0x05	; 5
    27c2:	90 e0       	ldi	r25, 0x00	; 0
    27c4:	0e 94 d7 0d 	call	0x1bae	; 0x1bae <mover_plotter>
	mover_plotter(2);
    27c8:	82 e0       	ldi	r24, 0x02	; 2
    27ca:	90 e0       	ldi	r25, 0x00	; 0
    27cc:	0e 94 d7 0d 	call	0x1bae	; 0x1bae <mover_plotter>
	mover_plotter(0);
    27d0:	80 e0       	ldi	r24, 0x00	; 0
    27d2:	90 e0       	ldi	r25, 0x00	; 0
    27d4:	0e 94 d7 0d 	call	0x1bae	; 0x1bae <mover_plotter>
	mover_plotter(6);
    27d8:	86 e0       	ldi	r24, 0x06	; 6
    27da:	90 e0       	ldi	r25, 0x00	; 0
    27dc:	0e 94 d7 0d 	call	0x1bae	; 0x1bae <mover_plotter>
	mover_plotter(4);
    27e0:	84 e0       	ldi	r24, 0x04	; 4
    27e2:	90 e0       	ldi	r25, 0x00	; 0
    27e4:	0e 94 d7 0d 	call	0x1bae	; 0x1bae <mover_plotter>
	//Hojas
	mover_plotter(2);
    27e8:	82 e0       	ldi	r24, 0x02	; 2
    27ea:	90 e0       	ldi	r25, 0x00	; 0
    27ec:	0e 94 d7 0d 	call	0x1bae	; 0x1bae <mover_plotter>
	mover_plotter(5);
    27f0:	85 e0       	ldi	r24, 0x05	; 5
    27f2:	90 e0       	ldi	r25, 0x00	; 0
    27f4:	0e 94 d7 0d 	call	0x1bae	; 0x1bae <mover_plotter>
	mover_plotter(3);
    27f8:	83 e0       	ldi	r24, 0x03	; 3
    27fa:	90 e0       	ldi	r25, 0x00	; 0
    27fc:	0e 94 d7 0d 	call	0x1bae	; 0x1bae <mover_plotter>
	mover_plotter(3);
    2800:	83 e0       	ldi	r24, 0x03	; 3
    2802:	90 e0       	ldi	r25, 0x00	; 0
    2804:	0e 94 d7 0d 	call	0x1bae	; 0x1bae <mover_plotter>
	mover_plotter(7);
    2808:	87 e0       	ldi	r24, 0x07	; 7
    280a:	90 e0       	ldi	r25, 0x00	; 0
    280c:	0e 94 d7 0d 	call	0x1bae	; 0x1bae <mover_plotter>
	mover_plotter(2);
    2810:	82 e0       	ldi	r24, 0x02	; 2
    2812:	90 e0       	ldi	r25, 0x00	; 0
    2814:	0e 94 d7 0d 	call	0x1bae	; 0x1bae <mover_plotter>
	mover_plotter(4);
    2818:	84 e0       	ldi	r24, 0x04	; 4
    281a:	90 e0       	ldi	r25, 0x00	; 0
    281c:	0e 94 d7 0d 	call	0x1bae	; 0x1bae <mover_plotter>
	mover_plotter(6);
    2820:	86 e0       	ldi	r24, 0x06	; 6
    2822:	90 e0       	ldi	r25, 0x00	; 0
    2824:	0e 94 d7 0d 	call	0x1bae	; 0x1bae <mover_plotter>
	//Tallo
	mover_plotter(7);
    2828:	87 e0       	ldi	r24, 0x07	; 7
    282a:	90 e0       	ldi	r25, 0x00	; 0
    282c:	0e 94 d7 0d 	call	0x1bae	; 0x1bae <mover_plotter>
	mover_plotter(0);
    2830:	80 e0       	ldi	r24, 0x00	; 0
    2832:	90 e0       	ldi	r25, 0x00	; 0
    2834:	0e 94 d7 0d 	call	0x1bae	; 0x1bae <mover_plotter>
	mover_plotter(0);
    2838:	80 e0       	ldi	r24, 0x00	; 0
    283a:	90 e0       	ldi	r25, 0x00	; 0
    283c:	0e 94 d7 0d 	call	0x1bae	; 0x1bae <mover_plotter>
	mover_solenoide(0);  // Subir solenoide
    2840:	80 e0       	ldi	r24, 0x00	; 0
    2842:	90 e0       	ldi	r25, 0x00	; 0
    2844:	0e 94 22 18 	call	0x3044	; 0x3044 <mover_solenoide>
    2848:	08 95       	ret

Disassembly of section .text.dibujar_Triangulo:

00002ef8 <dibujar_Triangulo>:
}

void dibujar_Triangulo(){
	Centrar();
    2ef8:	0e 94 3f 16 	call	0x2c7e	; 0x2c7e <Centrar>
	mover_solenoide(1);
    2efc:	81 e0       	ldi	r24, 0x01	; 1
    2efe:	90 e0       	ldi	r25, 0x00	; 0
    2f00:	0e 94 22 18 	call	0x3044	; 0x3044 <mover_solenoide>
    2f04:	2f ef       	ldi	r18, 0xFF	; 255
    2f06:	8d e3       	ldi	r24, 0x3D	; 61
    2f08:	99 e4       	ldi	r25, 0x49	; 73
    2f0a:	21 50       	subi	r18, 0x01	; 1
    2f0c:	80 40       	sbci	r24, 0x00	; 0
    2f0e:	90 40       	sbci	r25, 0x00	; 0
    2f10:	e1 f7       	brne	.-8      	; 0x2f0a <dibujar_Triangulo+0x12>
    2f12:	00 c0       	rjmp	.+0      	; 0x2f14 <dibujar_Triangulo+0x1c>
    2f14:	00 00       	nop
	_delay_ms(1500);
	mover_plotter(7);
    2f16:	87 e0       	ldi	r24, 0x07	; 7
    2f18:	90 e0       	ldi	r25, 0x00	; 0
    2f1a:	0e 94 d7 0d 	call	0x1bae	; 0x1bae <mover_plotter>
	mover_plotter(5);
    2f1e:	85 e0       	ldi	r24, 0x05	; 5
    2f20:	90 e0       	ldi	r25, 0x00	; 0
    2f22:	0e 94 d7 0d 	call	0x1bae	; 0x1bae <mover_plotter>
	mover_plotter(2);
    2f26:	82 e0       	ldi	r24, 0x02	; 2
    2f28:	90 e0       	ldi	r25, 0x00	; 0
    2f2a:	0e 94 d7 0d 	call	0x1bae	; 0x1bae <mover_plotter>
	mover_solenoide(0);
    2f2e:	80 e0       	ldi	r24, 0x00	; 0
    2f30:	90 e0       	ldi	r25, 0x00	; 0
    2f32:	0e 94 22 18 	call	0x3044	; 0x3044 <mover_solenoide>
    2f36:	08 95       	ret

Disassembly of section .text.dibujar_cruz:

00002d9a <dibujar_cruz>:
}

void dibujar_cruz(){
	Centrar();
    2d9a:	0e 94 3f 16 	call	0x2c7e	; 0x2c7e <Centrar>
	mover_solenoide(1);
    2d9e:	81 e0       	ldi	r24, 0x01	; 1
    2da0:	90 e0       	ldi	r25, 0x00	; 0
    2da2:	0e 94 22 18 	call	0x3044	; 0x3044 <mover_solenoide>
    2da6:	2f ef       	ldi	r18, 0xFF	; 255
    2da8:	8d e3       	ldi	r24, 0x3D	; 61
    2daa:	99 e4       	ldi	r25, 0x49	; 73
    2dac:	21 50       	subi	r18, 0x01	; 1
    2dae:	80 40       	sbci	r24, 0x00	; 0
    2db0:	90 40       	sbci	r25, 0x00	; 0
    2db2:	e1 f7       	brne	.-8      	; 0x2dac <dibujar_cruz+0x12>
    2db4:	00 c0       	rjmp	.+0      	; 0x2db6 <dibujar_cruz+0x1c>
    2db6:	00 00       	nop
	_delay_ms(1500);
	mover_plotter(7);
    2db8:	87 e0       	ldi	r24, 0x07	; 7
    2dba:	90 e0       	ldi	r25, 0x00	; 0
    2dbc:	0e 94 d7 0d 	call	0x1bae	; 0x1bae <mover_plotter>
	mover_solenoide(0);
    2dc0:	80 e0       	ldi	r24, 0x00	; 0
    2dc2:	90 e0       	ldi	r25, 0x00	; 0
    2dc4:	0e 94 22 18 	call	0x3044	; 0x3044 <mover_solenoide>
    2dc8:	2f ef       	ldi	r18, 0xFF	; 255
    2dca:	8d e3       	ldi	r24, 0x3D	; 61
    2dcc:	99 e4       	ldi	r25, 0x49	; 73
    2dce:	21 50       	subi	r18, 0x01	; 1
    2dd0:	80 40       	sbci	r24, 0x00	; 0
    2dd2:	90 40       	sbci	r25, 0x00	; 0
    2dd4:	e1 f7       	brne	.-8      	; 0x2dce <dibujar_cruz+0x34>
    2dd6:	00 c0       	rjmp	.+0      	; 0x2dd8 <dibujar_cruz+0x3e>
    2dd8:	00 00       	nop
	_delay_ms(1500);
	mover_plotter(2);
    2dda:	82 e0       	ldi	r24, 0x02	; 2
    2ddc:	90 e0       	ldi	r25, 0x00	; 0
    2dde:	0e 94 d7 0d 	call	0x1bae	; 0x1bae <mover_plotter>
	mover_solenoide(1);
    2de2:	81 e0       	ldi	r24, 0x01	; 1
    2de4:	90 e0       	ldi	r25, 0x00	; 0
    2de6:	0e 94 22 18 	call	0x3044	; 0x3044 <mover_solenoide>
    2dea:	2f ef       	ldi	r18, 0xFF	; 255
    2dec:	8d e3       	ldi	r24, 0x3D	; 61
    2dee:	99 e4       	ldi	r25, 0x49	; 73
    2df0:	21 50       	subi	r18, 0x01	; 1
    2df2:	80 40       	sbci	r24, 0x00	; 0
    2df4:	90 40       	sbci	r25, 0x00	; 0
    2df6:	e1 f7       	brne	.-8      	; 0x2df0 <dibujar_cruz+0x56>
    2df8:	00 c0       	rjmp	.+0      	; 0x2dfa <dibujar_cruz+0x60>
    2dfa:	00 00       	nop
	_delay_ms(1500);
	mover_plotter(5);
    2dfc:	85 e0       	ldi	r24, 0x05	; 5
    2dfe:	90 e0       	ldi	r25, 0x00	; 0
    2e00:	0e 94 d7 0d 	call	0x1bae	; 0x1bae <mover_plotter>
	mover_solenoide(0);	
    2e04:	80 e0       	ldi	r24, 0x00	; 0
    2e06:	90 e0       	ldi	r25, 0x00	; 0
    2e08:	0e 94 22 18 	call	0x3044	; 0x3044 <mover_solenoide>
    2e0c:	08 95       	ret

Disassembly of section .text.dibujar_Zorro:

0000191c <dibujar_Zorro>:
}

void dibujar_Zorro(){
	Centrar();
    191c:	0e 94 3f 16 	call	0x2c7e	; 0x2c7e <Centrar>
	mover_solenoide(1);
    1920:	81 e0       	ldi	r24, 0x01	; 1
    1922:	90 e0       	ldi	r25, 0x00	; 0
    1924:	0e 94 22 18 	call	0x3044	; 0x3044 <mover_solenoide>
    1928:	2f ef       	ldi	r18, 0xFF	; 255
    192a:	8d e3       	ldi	r24, 0x3D	; 61
    192c:	99 e4       	ldi	r25, 0x49	; 73
    192e:	21 50       	subi	r18, 0x01	; 1
    1930:	80 40       	sbci	r24, 0x00	; 0
    1932:	90 40       	sbci	r25, 0x00	; 0
    1934:	e1 f7       	brne	.-8      	; 0x192e <dibujar_Zorro+0x12>
    1936:	00 c0       	rjmp	.+0      	; 0x1938 <dibujar_Zorro+0x1c>
    1938:	00 00       	nop
	_delay_ms(1500);
	mover_plotter(5);
    193a:	85 e0       	ldi	r24, 0x05	; 5
    193c:	90 e0       	ldi	r25, 0x00	; 0
    193e:	0e 94 d7 0d 	call	0x1bae	; 0x1bae <mover_plotter>
	mover_plotter(5);
    1942:	85 e0       	ldi	r24, 0x05	; 5
    1944:	90 e0       	ldi	r25, 0x00	; 0
    1946:	0e 94 d7 0d 	call	0x1bae	; 0x1bae <mover_plotter>
	mover_plotter(5);
    194a:	85 e0       	ldi	r24, 0x05	; 5
    194c:	90 e0       	ldi	r25, 0x00	; 0
    194e:	0e 94 d7 0d 	call	0x1bae	; 0x1bae <mover_plotter>
	mover_plotter(5);
    1952:	85 e0       	ldi	r24, 0x05	; 5
    1954:	90 e0       	ldi	r25, 0x00	; 0
    1956:	0e 94 d7 0d 	call	0x1bae	; 0x1bae <mover_plotter>
	mover_plotter(5);
    195a:	85 e0       	ldi	r24, 0x05	; 5
    195c:	90 e0       	ldi	r25, 0x00	; 0
    195e:	0e 94 d7 0d 	call	0x1bae	; 0x1bae <mover_plotter>
	mover_plotter(0);
    1962:	80 e0       	ldi	r24, 0x00	; 0
    1964:	90 e0       	ldi	r25, 0x00	; 0
    1966:	0e 94 d7 0d 	call	0x1bae	; 0x1bae <mover_plotter>
	mover_plotter(7);
    196a:	87 e0       	ldi	r24, 0x07	; 7
    196c:	90 e0       	ldi	r25, 0x00	; 0
    196e:	0e 94 d7 0d 	call	0x1bae	; 0x1bae <mover_plotter>
	mover_plotter(6);
    1972:	86 e0       	ldi	r24, 0x06	; 6
    1974:	90 e0       	ldi	r25, 0x00	; 0
    1976:	0e 94 d7 0d 	call	0x1bae	; 0x1bae <mover_plotter>
	mover_plotter(6);
    197a:	86 e0       	ldi	r24, 0x06	; 6
    197c:	90 e0       	ldi	r25, 0x00	; 0
    197e:	0e 94 d7 0d 	call	0x1bae	; 0x1bae <mover_plotter>
	mover_plotter(1);
    1982:	81 e0       	ldi	r24, 0x01	; 1
    1984:	90 e0       	ldi	r25, 0x00	; 0
    1986:	0e 94 d7 0d 	call	0x1bae	; 0x1bae <mover_plotter>
	mover_plotter(1);
    198a:	81 e0       	ldi	r24, 0x01	; 1
    198c:	90 e0       	ldi	r25, 0x00	; 0
    198e:	0e 94 d7 0d 	call	0x1bae	; 0x1bae <mover_plotter>
	mover_plotter(1);
    1992:	81 e0       	ldi	r24, 0x01	; 1
    1994:	90 e0       	ldi	r25, 0x00	; 0
    1996:	0e 94 d7 0d 	call	0x1bae	; 0x1bae <mover_plotter>
	mover_plotter(7);
    199a:	87 e0       	ldi	r24, 0x07	; 7
    199c:	90 e0       	ldi	r25, 0x00	; 0
    199e:	0e 94 d7 0d 	call	0x1bae	; 0x1bae <mover_plotter>
	mover_plotter(7);
    19a2:	87 e0       	ldi	r24, 0x07	; 7
    19a4:	90 e0       	ldi	r25, 0x00	; 0
    19a6:	0e 94 d7 0d 	call	0x1bae	; 0x1bae <mover_plotter>
	mover_plotter(3);
    19aa:	83 e0       	ldi	r24, 0x03	; 3
    19ac:	90 e0       	ldi	r25, 0x00	; 0
    19ae:	0e 94 d7 0d 	call	0x1bae	; 0x1bae <mover_plotter>
	mover_plotter(3);
    19b2:	83 e0       	ldi	r24, 0x03	; 3
    19b4:	90 e0       	ldi	r25, 0x00	; 0
    19b6:	0e 94 d7 0d 	call	0x1bae	; 0x1bae <mover_plotter>
	mover_plotter(7);
    19ba:	87 e0       	ldi	r24, 0x07	; 7
    19bc:	90 e0       	ldi	r25, 0x00	; 0
    19be:	0e 94 d7 0d 	call	0x1bae	; 0x1bae <mover_plotter>
	mover_plotter(0);
    19c2:	80 e0       	ldi	r24, 0x00	; 0
    19c4:	90 e0       	ldi	r25, 0x00	; 0
    19c6:	0e 94 d7 0d 	call	0x1bae	; 0x1bae <mover_plotter>
	mover_plotter(0);
    19ca:	80 e0       	ldi	r24, 0x00	; 0
    19cc:	90 e0       	ldi	r25, 0x00	; 0
    19ce:	0e 94 d7 0d 	call	0x1bae	; 0x1bae <mover_plotter>
	mover_plotter(4);
    19d2:	84 e0       	ldi	r24, 0x04	; 4
    19d4:	90 e0       	ldi	r25, 0x00	; 0
    19d6:	0e 94 d7 0d 	call	0x1bae	; 0x1bae <mover_plotter>
	mover_plotter(0);
    19da:	80 e0       	ldi	r24, 0x00	; 0
    19dc:	90 e0       	ldi	r25, 0x00	; 0
    19de:	0e 94 d7 0d 	call	0x1bae	; 0x1bae <mover_plotter>
	mover_plotter(5);
    19e2:	85 e0       	ldi	r24, 0x05	; 5
    19e4:	90 e0       	ldi	r25, 0x00	; 0
    19e6:	0e 94 d7 0d 	call	0x1bae	; 0x1bae <mover_plotter>
	mover_plotter(5);
    19ea:	85 e0       	ldi	r24, 0x05	; 5
    19ec:	90 e0       	ldi	r25, 0x00	; 0
    19ee:	0e 94 d7 0d 	call	0x1bae	; 0x1bae <mover_plotter>
	mover_plotter(0);
    19f2:	80 e0       	ldi	r24, 0x00	; 0
    19f4:	90 e0       	ldi	r25, 0x00	; 0
    19f6:	0e 94 d7 0d 	call	0x1bae	; 0x1bae <mover_plotter>
	mover_plotter(0);
    19fa:	80 e0       	ldi	r24, 0x00	; 0
    19fc:	90 e0       	ldi	r25, 0x00	; 0
    19fe:	0e 94 d7 0d 	call	0x1bae	; 0x1bae <mover_plotter>
	mover_plotter(4);
    1a02:	84 e0       	ldi	r24, 0x04	; 4
    1a04:	90 e0       	ldi	r25, 0x00	; 0
    1a06:	0e 94 d7 0d 	call	0x1bae	; 0x1bae <mover_plotter>
	mover_plotter(0);
    1a0a:	80 e0       	ldi	r24, 0x00	; 0
    1a0c:	90 e0       	ldi	r25, 0x00	; 0
    1a0e:	0e 94 d7 0d 	call	0x1bae	; 0x1bae <mover_plotter>
	mover_plotter(4);
    1a12:	84 e0       	ldi	r24, 0x04	; 4
    1a14:	90 e0       	ldi	r25, 0x00	; 0
    1a16:	0e 94 d7 0d 	call	0x1bae	; 0x1bae <mover_plotter>
	mover_plotter(4);
    1a1a:	84 e0       	ldi	r24, 0x04	; 4
    1a1c:	90 e0       	ldi	r25, 0x00	; 0
    1a1e:	0e 94 d7 0d 	call	0x1bae	; 0x1bae <mover_plotter>
	mover_plotter(2);
    1a22:	82 e0       	ldi	r24, 0x02	; 2
    1a24:	90 e0       	ldi	r25, 0x00	; 0
    1a26:	0e 94 d7 0d 	call	0x1bae	; 0x1bae <mover_plotter>
	mover_plotter(6);
    1a2a:	86 e0       	ldi	r24, 0x06	; 6
    1a2c:	90 e0       	ldi	r25, 0x00	; 0
    1a2e:	0e 94 d7 0d 	call	0x1bae	; 0x1bae <mover_plotter>
	mover_plotter(4);
    1a32:	84 e0       	ldi	r24, 0x04	; 4
    1a34:	90 e0       	ldi	r25, 0x00	; 0
    1a36:	0e 94 d7 0d 	call	0x1bae	; 0x1bae <mover_plotter>
	mover_plotter(2);
    1a3a:	82 e0       	ldi	r24, 0x02	; 2
    1a3c:	90 e0       	ldi	r25, 0x00	; 0
    1a3e:	0e 94 d7 0d 	call	0x1bae	; 0x1bae <mover_plotter>
	mover_plotter(2);
    1a42:	82 e0       	ldi	r24, 0x02	; 2
    1a44:	90 e0       	ldi	r25, 0x00	; 0
    1a46:	0e 94 d7 0d 	call	0x1bae	; 0x1bae <mover_plotter>
	mover_plotter(2);
    1a4a:	82 e0       	ldi	r24, 0x02	; 2
    1a4c:	90 e0       	ldi	r25, 0x00	; 0
    1a4e:	0e 94 d7 0d 	call	0x1bae	; 0x1bae <mover_plotter>
	mover_plotter(2);
    1a52:	82 e0       	ldi	r24, 0x02	; 2
    1a54:	90 e0       	ldi	r25, 0x00	; 0
    1a56:	0e 94 d7 0d 	call	0x1bae	; 0x1bae <mover_plotter>
	mover_plotter(6);
    1a5a:	86 e0       	ldi	r24, 0x06	; 6
    1a5c:	90 e0       	ldi	r25, 0x00	; 0
    1a5e:	0e 94 d7 0d 	call	0x1bae	; 0x1bae <mover_plotter>
	mover_plotter(4);
    1a62:	84 e0       	ldi	r24, 0x04	; 4
    1a64:	90 e0       	ldi	r25, 0x00	; 0
    1a66:	0e 94 d7 0d 	call	0x1bae	; 0x1bae <mover_plotter>
	mover_plotter(2);
    1a6a:	82 e0       	ldi	r24, 0x02	; 2
    1a6c:	90 e0       	ldi	r25, 0x00	; 0
    1a6e:	0e 94 d7 0d 	call	0x1bae	; 0x1bae <mover_plotter>
	mover_plotter(2);
    1a72:	82 e0       	ldi	r24, 0x02	; 2
    1a74:	90 e0       	ldi	r25, 0x00	; 0
    1a76:	0e 94 d7 0d 	call	0x1bae	; 0x1bae <mover_plotter>
	mover_plotter(7);
    1a7a:	87 e0       	ldi	r24, 0x07	; 7
    1a7c:	90 e0       	ldi	r25, 0x00	; 0
    1a7e:	0e 94 d7 0d 	call	0x1bae	; 0x1bae <mover_plotter>
	mover_plotter(1);
    1a82:	81 e0       	ldi	r24, 0x01	; 1
    1a84:	90 e0       	ldi	r25, 0x00	; 0
    1a86:	0e 94 d7 0d 	call	0x1bae	; 0x1bae <mover_plotter>
	mover_plotter(1);
    1a8a:	81 e0       	ldi	r24, 0x01	; 1
    1a8c:	90 e0       	ldi	r25, 0x00	; 0
    1a8e:	0e 94 d7 0d 	call	0x1bae	; 0x1bae <mover_plotter>
	mover_plotter(1);
    1a92:	81 e0       	ldi	r24, 0x01	; 1
    1a94:	90 e0       	ldi	r25, 0x00	; 0
    1a96:	0e 94 d7 0d 	call	0x1bae	; 0x1bae <mover_plotter>
	mover_plotter(6);
    1a9a:	86 e0       	ldi	r24, 0x06	; 6
    1a9c:	90 e0       	ldi	r25, 0x00	; 0
    1a9e:	0e 94 d7 0d 	call	0x1bae	; 0x1bae <mover_plotter>
	mover_plotter(1);
    1aa2:	81 e0       	ldi	r24, 0x01	; 1
    1aa4:	90 e0       	ldi	r25, 0x00	; 0
    1aa6:	0e 94 d7 0d 	call	0x1bae	; 0x1bae <mover_plotter>
	mover_plotter(1);
    1aaa:	81 e0       	ldi	r24, 0x01	; 1
    1aac:	90 e0       	ldi	r25, 0x00	; 0
    1aae:	0e 94 d7 0d 	call	0x1bae	; 0x1bae <mover_plotter>
	mover_plotter(1);
    1ab2:	81 e0       	ldi	r24, 0x01	; 1
    1ab4:	90 e0       	ldi	r25, 0x00	; 0
    1ab6:	0e 94 d7 0d 	call	0x1bae	; 0x1bae <mover_plotter>
	mover_plotter(7);
    1aba:	87 e0       	ldi	r24, 0x07	; 7
    1abc:	90 e0       	ldi	r25, 0x00	; 0
    1abe:	0e 94 d7 0d 	call	0x1bae	; 0x1bae <mover_plotter>
	mover_plotter(2);
    1ac2:	82 e0       	ldi	r24, 0x02	; 2
    1ac4:	90 e0       	ldi	r25, 0x00	; 0
    1ac6:	0e 94 d7 0d 	call	0x1bae	; 0x1bae <mover_plotter>
	mover_plotter(2);
    1aca:	82 e0       	ldi	r24, 0x02	; 2
    1acc:	90 e0       	ldi	r25, 0x00	; 0
    1ace:	0e 94 d7 0d 	call	0x1bae	; 0x1bae <mover_plotter>
	mover_plotter(6);
    1ad2:	86 e0       	ldi	r24, 0x06	; 6
    1ad4:	90 e0       	ldi	r25, 0x00	; 0
    1ad6:	0e 94 d7 0d 	call	0x1bae	; 0x1bae <mover_plotter>
	mover_plotter(6);
    1ada:	86 e0       	ldi	r24, 0x06	; 6
    1adc:	90 e0       	ldi	r25, 0x00	; 0
    1ade:	0e 94 d7 0d 	call	0x1bae	; 0x1bae <mover_plotter>
	mover_plotter(6);
    1ae2:	86 e0       	ldi	r24, 0x06	; 6
    1ae4:	90 e0       	ldi	r25, 0x00	; 0
    1ae6:	0e 94 d7 0d 	call	0x1bae	; 0x1bae <mover_plotter>
	mover_plotter(1);
    1aea:	81 e0       	ldi	r24, 0x01	; 1
    1aec:	90 e0       	ldi	r25, 0x00	; 0
    1aee:	0e 94 d7 0d 	call	0x1bae	; 0x1bae <mover_plotter>
	mover_plotter(3);
    1af2:	83 e0       	ldi	r24, 0x03	; 3
    1af4:	90 e0       	ldi	r25, 0x00	; 0
    1af6:	0e 94 d7 0d 	call	0x1bae	; 0x1bae <mover_plotter>
	mover_plotter(3);
    1afa:	83 e0       	ldi	r24, 0x03	; 3
    1afc:	90 e0       	ldi	r25, 0x00	; 0
    1afe:	0e 94 d7 0d 	call	0x1bae	; 0x1bae <mover_plotter>
	mover_plotter(3);
    1b02:	83 e0       	ldi	r24, 0x03	; 3
    1b04:	90 e0       	ldi	r25, 0x00	; 0
    1b06:	0e 94 d7 0d 	call	0x1bae	; 0x1bae <mover_plotter>
	mover_plotter(7);
    1b0a:	87 e0       	ldi	r24, 0x07	; 7
    1b0c:	90 e0       	ldi	r25, 0x00	; 0
    1b0e:	0e 94 d7 0d 	call	0x1bae	; 0x1bae <mover_plotter>
	mover_plotter(7);
    1b12:	87 e0       	ldi	r24, 0x07	; 7
    1b14:	90 e0       	ldi	r25, 0x00	; 0
    1b16:	0e 94 d7 0d 	call	0x1bae	; 0x1bae <mover_plotter>
	mover_plotter(1);
    1b1a:	81 e0       	ldi	r24, 0x01	; 1
    1b1c:	90 e0       	ldi	r25, 0x00	; 0
    1b1e:	0e 94 d7 0d 	call	0x1bae	; 0x1bae <mover_plotter>
	mover_plotter(1);
    1b22:	81 e0       	ldi	r24, 0x01	; 1
    1b24:	90 e0       	ldi	r25, 0x00	; 0
    1b26:	0e 94 d7 0d 	call	0x1bae	; 0x1bae <mover_plotter>
	mover_plotter(5);
    1b2a:	85 e0       	ldi	r24, 0x05	; 5
    1b2c:	90 e0       	ldi	r25, 0x00	; 0
    1b2e:	0e 94 d7 0d 	call	0x1bae	; 0x1bae <mover_plotter>
	mover_plotter(5);
    1b32:	85 e0       	ldi	r24, 0x05	; 5
    1b34:	90 e0       	ldi	r25, 0x00	; 0
    1b36:	0e 94 d7 0d 	call	0x1bae	; 0x1bae <mover_plotter>
	mover_plotter(3);
    1b3a:	83 e0       	ldi	r24, 0x03	; 3
    1b3c:	90 e0       	ldi	r25, 0x00	; 0
    1b3e:	0e 94 d7 0d 	call	0x1bae	; 0x1bae <mover_plotter>
	mover_plotter(1);
    1b42:	81 e0       	ldi	r24, 0x01	; 1
    1b44:	90 e0       	ldi	r25, 0x00	; 0
    1b46:	0e 94 d7 0d 	call	0x1bae	; 0x1bae <mover_plotter>
	mover_plotter(1);
    1b4a:	81 e0       	ldi	r24, 0x01	; 1
    1b4c:	90 e0       	ldi	r25, 0x00	; 0
    1b4e:	0e 94 d7 0d 	call	0x1bae	; 0x1bae <mover_plotter>
	mover_plotter(5);
    1b52:	85 e0       	ldi	r24, 0x05	; 5
    1b54:	90 e0       	ldi	r25, 0x00	; 0
    1b56:	0e 94 d7 0d 	call	0x1bae	; 0x1bae <mover_plotter>
	mover_plotter(5);
    1b5a:	85 e0       	ldi	r24, 0x05	; 5
    1b5c:	90 e0       	ldi	r25, 0x00	; 0
    1b5e:	0e 94 d7 0d 	call	0x1bae	; 0x1bae <mover_plotter>
	mover_plotter(0);
    1b62:	80 e0       	ldi	r24, 0x00	; 0
    1b64:	90 e0       	ldi	r25, 0x00	; 0
    1b66:	0e 94 d7 0d 	call	0x1bae	; 0x1bae <mover_plotter>
	mover_plotter(0);
    1b6a:	80 e0       	ldi	r24, 0x00	; 0
    1b6c:	90 e0       	ldi	r25, 0x00	; 0
    1b6e:	0e 94 d7 0d 	call	0x1bae	; 0x1bae <mover_plotter>
	mover_plotter(0);
    1b72:	80 e0       	ldi	r24, 0x00	; 0
    1b74:	90 e0       	ldi	r25, 0x00	; 0
    1b76:	0e 94 d7 0d 	call	0x1bae	; 0x1bae <mover_plotter>
	mover_plotter(0);
    1b7a:	80 e0       	ldi	r24, 0x00	; 0
    1b7c:	90 e0       	ldi	r25, 0x00	; 0
    1b7e:	0e 94 d7 0d 	call	0x1bae	; 0x1bae <mover_plotter>
	mover_plotter(4);
    1b82:	84 e0       	ldi	r24, 0x04	; 4
    1b84:	90 e0       	ldi	r25, 0x00	; 0
    1b86:	0e 94 d7 0d 	call	0x1bae	; 0x1bae <mover_plotter>
	mover_plotter(4);
    1b8a:	84 e0       	ldi	r24, 0x04	; 4
    1b8c:	90 e0       	ldi	r25, 0x00	; 0
    1b8e:	0e 94 d7 0d 	call	0x1bae	; 0x1bae <mover_plotter>
	mover_solenoide(0);
    1b92:	80 e0       	ldi	r24, 0x00	; 0
    1b94:	90 e0       	ldi	r25, 0x00	; 0
    1b96:	0e 94 22 18 	call	0x3044	; 0x3044 <mover_solenoide>
    1b9a:	2f ef       	ldi	r18, 0xFF	; 255
    1b9c:	8d e3       	ldi	r24, 0x3D	; 61
    1b9e:	99 e4       	ldi	r25, 0x49	; 73
    1ba0:	21 50       	subi	r18, 0x01	; 1
    1ba2:	80 40       	sbci	r24, 0x00	; 0
    1ba4:	90 40       	sbci	r25, 0x00	; 0
    1ba6:	e1 f7       	brne	.-8      	; 0x1ba0 <dibujar_Zorro+0x284>
    1ba8:	00 c0       	rjmp	.+0      	; 0x1baa <dibujar_Zorro+0x28e>
    1baa:	00 00       	nop
    1bac:	08 95       	ret

Disassembly of section .text.main:

00001e10 <main>:
	_delay_ms(1500);
}

int main(void) {
	// Configurar los pines
	init_pins();
    1e10:	0e 94 c5 18 	call	0x318a	; 0x318a <init_pins>
	// Configurar UART con la velocidad de baudios de 9600
	UART_init(103);
    1e14:	87 e6       	ldi	r24, 0x67	; 103
    1e16:	90 e0       	ldi	r25, 0x00	; 0
    1e18:	0e 94 4d 18 	call	0x309a	; 0x309a <UART_init>
    1e1c:	2f ef       	ldi	r18, 0xFF	; 255
    1e1e:	83 ed       	ldi	r24, 0xD3	; 211
    1e20:	90 e3       	ldi	r25, 0x30	; 48
    1e22:	21 50       	subi	r18, 0x01	; 1
    1e24:	80 40       	sbci	r24, 0x00	; 0
    1e26:	90 40       	sbci	r25, 0x00	; 0
    1e28:	e1 f7       	brne	.-8      	; 0x1e22 <main+0x12>
    1e2a:	00 c0       	rjmp	.+0      	; 0x1e2c <main+0x1c>
    1e2c:	00 00       	nop
	char Opcion;
	
	while(1){
		_delay_ms(1000);
		UART_sendString("* * * * * * * * * * * * * * * * * * * * * * * * * * * * * * * * * * * * \n");
    1e2e:	6c e9       	ldi	r22, 0x9C	; 156
    1e30:	70 e0       	ldi	r23, 0x00	; 0
    1e32:	80 e0       	ldi	r24, 0x00	; 0
    1e34:	0e 94 d3 17 	call	0x2fa6	; 0x2fa6 <UART_sendString>
		UART_sendString(" \n");
    1e38:	66 ee       	ldi	r22, 0xE6	; 230
    1e3a:	70 e0       	ldi	r23, 0x00	; 0
    1e3c:	80 e0       	ldi	r24, 0x00	; 0
    1e3e:	0e 94 d3 17 	call	0x2fa6	; 0x2fa6 <UART_sendString>
		UART_sendString("Bienvenido al programa para dibujar sobre el Plotter con ATmega328p\r\n");
    1e42:	69 ee       	ldi	r22, 0xE9	; 233
    1e44:	70 e0       	ldi	r23, 0x00	; 0
    1e46:	80 e0       	ldi	r24, 0x00	; 0
    1e48:	0e 94 d3 17 	call	0x2fa6	; 0x2fa6 <UART_sendString>
		UART_sendString(" \n");
    1e4c:	66 ee       	ldi	r22, 0xE6	; 230
    1e4e:	70 e0       	ldi	r23, 0x00	; 0
    1e50:	80 e0       	ldi	r24, 0x00	; 0
    1e52:	0e 94 d3 17 	call	0x2fa6	; 0x2fa6 <UART_sendString>
		UART_sendString("* * * * * * * * * * * * * * * * * * * * * * * * * * * * * * * * * * * * \n");
    1e56:	6c e9       	ldi	r22, 0x9C	; 156
    1e58:	70 e0       	ldi	r23, 0x00	; 0
    1e5a:	80 e0       	ldi	r24, 0x00	; 0
    1e5c:	0e 94 d3 17 	call	0x2fa6	; 0x2fa6 <UART_sendString>
		UART_sendString(" \n");
    1e60:	66 ee       	ldi	r22, 0xE6	; 230
    1e62:	70 e0       	ldi	r23, 0x00	; 0
    1e64:	80 e0       	ldi	r24, 0x00	; 0
    1e66:	0e 94 d3 17 	call	0x2fa6	; 0x2fa6 <UART_sendString>
		UART_sendString("Seleccione una de las siguientes opciones: \n");
    1e6a:	6f e2       	ldi	r22, 0x2F	; 47
    1e6c:	71 e0       	ldi	r23, 0x01	; 1
    1e6e:	80 e0       	ldi	r24, 0x00	; 0
    1e70:	0e 94 d3 17 	call	0x2fa6	; 0x2fa6 <UART_sendString>
		UART_sendString("1- Dibujar Triángulo \n");
    1e74:	6c e5       	ldi	r22, 0x5C	; 92
    1e76:	71 e0       	ldi	r23, 0x01	; 1
    1e78:	80 e0       	ldi	r24, 0x00	; 0
    1e7a:	0e 94 d3 17 	call	0x2fa6	; 0x2fa6 <UART_sendString>
		UART_sendString("2- Dibujar Círculo \n");
    1e7e:	63 e7       	ldi	r22, 0x73	; 115
    1e80:	71 e0       	ldi	r23, 0x01	; 1
    1e82:	80 e0       	ldi	r24, 0x00	; 0
    1e84:	0e 94 d3 17 	call	0x2fa6	; 0x2fa6 <UART_sendString>
		UART_sendString("3- Dibujar Cruz \n");
    1e88:	68 e8       	ldi	r22, 0x88	; 136
    1e8a:	71 e0       	ldi	r23, 0x01	; 1
    1e8c:	80 e0       	ldi	r24, 0x00	; 0
    1e8e:	0e 94 d3 17 	call	0x2fa6	; 0x2fa6 <UART_sendString>
		UART_sendString("4- Dibujar Zorro \n");
    1e92:	6a e9       	ldi	r22, 0x9A	; 154
    1e94:	71 e0       	ldi	r23, 0x01	; 1
    1e96:	80 e0       	ldi	r24, 0x00	; 0
    1e98:	0e 94 d3 17 	call	0x2fa6	; 0x2fa6 <UART_sendString>
		UART_sendString("5- Dibujar Flor \n");
    1e9c:	6d ea       	ldi	r22, 0xAD	; 173
    1e9e:	71 e0       	ldi	r23, 0x01	; 1
    1ea0:	80 e0       	ldi	r24, 0x00	; 0
    1ea2:	0e 94 d3 17 	call	0x2fa6	; 0x2fa6 <UART_sendString>
		UART_sendString("6- Dibujo personalizado \n");
    1ea6:	6f eb       	ldi	r22, 0xBF	; 191
    1ea8:	71 e0       	ldi	r23, 0x01	; 1
    1eaa:	80 e0       	ldi	r24, 0x00	; 0
    1eac:	0e 94 d3 17 	call	0x2fa6	; 0x2fa6 <UART_sendString>
		
		Opcion = UART_receiveChar();
    1eb0:	0e 94 85 18 	call	0x310a	; 0x310a <UART_receiveChar>
    1eb4:	c8 2f       	mov	r28, r24
		if (Opcion == '1'){
    1eb6:	81 33       	cpi	r24, 0x31	; 49
    1eb8:	61 f4       	brne	.+24     	; 0x1ed2 <main+0xc2>
			UART_sendString("Dibujando Triángulo: \n");
    1eba:	69 ed       	ldi	r22, 0xD9	; 217
    1ebc:	71 e0       	ldi	r23, 0x01	; 1
    1ebe:	80 e0       	ldi	r24, 0x00	; 0
    1ec0:	0e 94 d3 17 	call	0x2fa6	; 0x2fa6 <UART_sendString>
			dibujar_Triangulo();
    1ec4:	0e 94 7c 17 	call	0x2ef8	; 0x2ef8 <dibujar_Triangulo>
			UART_sendString("Triángulo Finalizado: \n");
    1ec8:	60 ef       	ldi	r22, 0xF0	; 240
    1eca:	71 e0       	ldi	r23, 0x01	; 1
    1ecc:	80 e0       	ldi	r24, 0x00	; 0
    1ece:	0e 94 d3 17 	call	0x2fa6	; 0x2fa6 <UART_sendString>
		}
		if (Opcion == '2'){
    1ed2:	c2 33       	cpi	r28, 0x32	; 50
    1ed4:	61 f4       	brne	.+24     	; 0x1eee <main+0xde>
			UART_sendString("Dibujando Círculo: \n");
    1ed6:	68 e0       	ldi	r22, 0x08	; 8
    1ed8:	72 e0       	ldi	r23, 0x02	; 2
    1eda:	80 e0       	ldi	r24, 0x00	; 0
    1edc:	0e 94 d3 17 	call	0x2fa6	; 0x2fa6 <UART_sendString>
			dibujar_circulo();
    1ee0:	0e 94 24 13 	call	0x2648	; 0x2648 <dibujar_circulo>
			UART_sendString("Círculo Finalizado: \n");
    1ee4:	6d e1       	ldi	r22, 0x1D	; 29
    1ee6:	72 e0       	ldi	r23, 0x02	; 2
    1ee8:	80 e0       	ldi	r24, 0x00	; 0
    1eea:	0e 94 d3 17 	call	0x2fa6	; 0x2fa6 <UART_sendString>
		}
		if (Opcion == '3'){
    1eee:	c3 33       	cpi	r28, 0x33	; 51
    1ef0:	61 f4       	brne	.+24     	; 0x1f0a <main+0xfa>
			UART_sendString("Dibujando Cruz: \n");
    1ef2:	63 e3       	ldi	r22, 0x33	; 51
    1ef4:	72 e0       	ldi	r23, 0x02	; 2
    1ef6:	80 e0       	ldi	r24, 0x00	; 0
    1ef8:	0e 94 d3 17 	call	0x2fa6	; 0x2fa6 <UART_sendString>
			dibujar_cruz();
    1efc:	0e 94 cd 16 	call	0x2d9a	; 0x2d9a <dibujar_cruz>
			UART_sendString("Cruz Finalizado: \n");
    1f00:	65 e4       	ldi	r22, 0x45	; 69
    1f02:	72 e0       	ldi	r23, 0x02	; 2
    1f04:	80 e0       	ldi	r24, 0x00	; 0
    1f06:	0e 94 d3 17 	call	0x2fa6	; 0x2fa6 <UART_sendString>
		}
		if (Opcion == '4'){
    1f0a:	c4 33       	cpi	r28, 0x34	; 52
    1f0c:	61 f4       	brne	.+24     	; 0x1f26 <main+0x116>
			UART_sendString("Dibujando Zorro: \n");
    1f0e:	68 e5       	ldi	r22, 0x58	; 88
    1f10:	72 e0       	ldi	r23, 0x02	; 2
    1f12:	80 e0       	ldi	r24, 0x00	; 0
    1f14:	0e 94 d3 17 	call	0x2fa6	; 0x2fa6 <UART_sendString>
			dibujar_Zorro();
    1f18:	0e 94 8e 0c 	call	0x191c	; 0x191c <dibujar_Zorro>
			UART_sendString("Zorro Finalizado: \n");
    1f1c:	6b e6       	ldi	r22, 0x6B	; 107
    1f1e:	72 e0       	ldi	r23, 0x02	; 2
    1f20:	80 e0       	ldi	r24, 0x00	; 0
    1f22:	0e 94 d3 17 	call	0x2fa6	; 0x2fa6 <UART_sendString>
		}
		if (Opcion == '5'){
    1f26:	c5 33       	cpi	r28, 0x35	; 53
    1f28:	61 f4       	brne	.+24     	; 0x1f42 <main+0x132>
			UART_sendString("Dibujando Flor: \n");
    1f2a:	6f e7       	ldi	r22, 0x7F	; 127
    1f2c:	72 e0       	ldi	r23, 0x02	; 2
    1f2e:	80 e0       	ldi	r24, 0x00	; 0
    1f30:	0e 94 d3 17 	call	0x2fa6	; 0x2fa6 <UART_sendString>
			dibujar_Flor();
    1f34:	0e 94 a5 13 	call	0x274a	; 0x274a <dibujar_Flor>
			UART_sendString("Flor Finalizado: \n");
    1f38:	61 e9       	ldi	r22, 0x91	; 145
    1f3a:	72 e0       	ldi	r23, 0x02	; 2
    1f3c:	80 e0       	ldi	r24, 0x00	; 0
    1f3e:	0e 94 d3 17 	call	0x2fa6	; 0x2fa6 <UART_sendString>
		}
		if (Opcion == '6'){
    1f42:	c6 33       	cpi	r28, 0x36	; 54
    1f44:	09 f0       	breq	.+2      	; 0x1f48 <main+0x138>
    1f46:	6a cf       	rjmp	.-300    	; 0x1e1c <main+0xc>
			UART_sendString("* * * * * * * * * * * * * * * * * * * * * * * * * * * * * * * * * * * * \n");
    1f48:	6c e9       	ldi	r22, 0x9C	; 156
    1f4a:	70 e0       	ldi	r23, 0x00	; 0
    1f4c:	80 e0       	ldi	r24, 0x00	; 0
    1f4e:	0e 94 d3 17 	call	0x2fa6	; 0x2fa6 <UART_sendString>
			UART_sendString("Lea las siguientes instrucciones para dibujar: \n");
    1f52:	64 ea       	ldi	r22, 0xA4	; 164
    1f54:	72 e0       	ldi	r23, 0x02	; 2
    1f56:	80 e0       	ldi	r24, 0x00	; 0
    1f58:	0e 94 d3 17 	call	0x2fa6	; 0x2fa6 <UART_sendString>
			UART_sendString("w- Mover el puntero hacia arriba: \n");
    1f5c:	65 ed       	ldi	r22, 0xD5	; 213
    1f5e:	72 e0       	ldi	r23, 0x02	; 2
    1f60:	80 e0       	ldi	r24, 0x00	; 0
    1f62:	0e 94 d3 17 	call	0x2fa6	; 0x2fa6 <UART_sendString>
			UART_sendString("s- Mover el puntero hacia abajo: \n");
    1f66:	69 ef       	ldi	r22, 0xF9	; 249
    1f68:	72 e0       	ldi	r23, 0x02	; 2
    1f6a:	80 e0       	ldi	r24, 0x00	; 0
    1f6c:	0e 94 d3 17 	call	0x2fa6	; 0x2fa6 <UART_sendString>
			UART_sendString("d- Mover el puntero hacia la derecha: \n");
    1f70:	6c e1       	ldi	r22, 0x1C	; 28
    1f72:	73 e0       	ldi	r23, 0x03	; 3
    1f74:	80 e0       	ldi	r24, 0x00	; 0
    1f76:	0e 94 d3 17 	call	0x2fa6	; 0x2fa6 <UART_sendString>
			UART_sendString("a- Mover el puntero hacia la izquierda: \n");
    1f7a:	64 e4       	ldi	r22, 0x44	; 68
    1f7c:	73 e0       	ldi	r23, 0x03	; 3
    1f7e:	80 e0       	ldi	r24, 0x00	; 0
    1f80:	0e 94 d3 17 	call	0x2fa6	; 0x2fa6 <UART_sendString>
			UART_sendString("0- Volver al menú principal: \n");
    1f84:	6e e6       	ldi	r22, 0x6E	; 110
    1f86:	73 e0       	ldi	r23, 0x03	; 3
    1f88:	80 e0       	ldi	r24, 0x00	; 0
    1f8a:	0e 94 d3 17 	call	0x2fa6	; 0x2fa6 <UART_sendString>
			UART_sendString("Centrando... ");
    1f8e:	6d e8       	ldi	r22, 0x8D	; 141
    1f90:	73 e0       	ldi	r23, 0x03	; 3
    1f92:	80 e0       	ldi	r24, 0x00	; 0
    1f94:	0e 94 d3 17 	call	0x2fa6	; 0x2fa6 <UART_sendString>
			Centrar();
    1f98:	0e 94 3f 16 	call	0x2c7e	; 0x2c7e <Centrar>
			mover_solenoide(1);
    1f9c:	81 e0       	ldi	r24, 0x01	; 1
    1f9e:	90 e0       	ldi	r25, 0x00	; 0
    1fa0:	0e 94 22 18 	call	0x3044	; 0x3044 <mover_solenoide>
			UART_sendString("Listo!\n");
    1fa4:	6b e9       	ldi	r22, 0x9B	; 155
    1fa6:	73 e0       	ldi	r23, 0x03	; 3
    1fa8:	80 e0       	ldi	r24, 0x00	; 0
    1faa:	0e 94 d3 17 	call	0x2fa6	; 0x2fa6 <UART_sendString>
    1fae:	2f ef       	ldi	r18, 0xFF	; 255
    1fb0:	8d e3       	ldi	r24, 0x3D	; 61
    1fb2:	99 e4       	ldi	r25, 0x49	; 73
    1fb4:	21 50       	subi	r18, 0x01	; 1
    1fb6:	80 40       	sbci	r24, 0x00	; 0
    1fb8:	90 40       	sbci	r25, 0x00	; 0
    1fba:	e1 f7       	brne	.-8      	; 0x1fb4 <main+0x1a4>
    1fbc:	00 c0       	rjmp	.+0      	; 0x1fbe <main+0x1ae>
    1fbe:	00 00       	nop
			_delay_ms(1500);
			Opcion = UART_receiveChar();
    1fc0:	0e 94 85 18 	call	0x310a	; 0x310a <UART_receiveChar>
    1fc4:	c8 2f       	mov	r28, r24
			while (Opcion != 0){
    1fc6:	2f c0       	rjmp	.+94     	; 0x2026 <main+0x216>
				if (Opcion == 'w'){
    1fc8:	c7 37       	cpi	r28, 0x77	; 119
    1fca:	49 f4       	brne	.+18     	; 0x1fde <main+0x1ce>
					UART_sendString("w\n");
    1fcc:	63 ea       	ldi	r22, 0xA3	; 163
    1fce:	73 e0       	ldi	r23, 0x03	; 3
    1fd0:	80 e0       	ldi	r24, 0x00	; 0
    1fd2:	0e 94 d3 17 	call	0x2fa6	; 0x2fa6 <UART_sendString>
					mover_plotter(1);
    1fd6:	81 e0       	ldi	r24, 0x01	; 1
    1fd8:	90 e0       	ldi	r25, 0x00	; 0
    1fda:	0e 94 d7 0d 	call	0x1bae	; 0x1bae <mover_plotter>
				}
				if (Opcion == 's'){
    1fde:	c3 37       	cpi	r28, 0x73	; 115
    1fe0:	49 f4       	brne	.+18     	; 0x1ff4 <main+0x1e4>
					UART_sendString("s\n");
    1fe2:	66 ea       	ldi	r22, 0xA6	; 166
    1fe4:	73 e0       	ldi	r23, 0x03	; 3
    1fe6:	80 e0       	ldi	r24, 0x00	; 0
    1fe8:	0e 94 d3 17 	call	0x2fa6	; 0x2fa6 <UART_sendString>
					mover_plotter(0);
    1fec:	80 e0       	ldi	r24, 0x00	; 0
    1fee:	90 e0       	ldi	r25, 0x00	; 0
    1ff0:	0e 94 d7 0d 	call	0x1bae	; 0x1bae <mover_plotter>
				}
				if (Opcion == 'd'){
    1ff4:	c4 36       	cpi	r28, 0x64	; 100
    1ff6:	49 f4       	brne	.+18     	; 0x200a <main+0x1fa>
					UART_sendString("d\n");
    1ff8:	69 ea       	ldi	r22, 0xA9	; 169
    1ffa:	73 e0       	ldi	r23, 0x03	; 3
    1ffc:	80 e0       	ldi	r24, 0x00	; 0
    1ffe:	0e 94 d3 17 	call	0x2fa6	; 0x2fa6 <UART_sendString>
					mover_plotter(3);
    2002:	83 e0       	ldi	r24, 0x03	; 3
    2004:	90 e0       	ldi	r25, 0x00	; 0
    2006:	0e 94 d7 0d 	call	0x1bae	; 0x1bae <mover_plotter>
				}
				if (Opcion == 'a'){
    200a:	c1 36       	cpi	r28, 0x61	; 97
    200c:	49 f4       	brne	.+18     	; 0x2020 <main+0x210>
					UART_sendString("a\n");
    200e:	6c ea       	ldi	r22, 0xAC	; 172
    2010:	73 e0       	ldi	r23, 0x03	; 3
    2012:	80 e0       	ldi	r24, 0x00	; 0
    2014:	0e 94 d3 17 	call	0x2fa6	; 0x2fa6 <UART_sendString>
					mover_plotter(2);
    2018:	82 e0       	ldi	r24, 0x02	; 2
    201a:	90 e0       	ldi	r25, 0x00	; 0
    201c:	0e 94 d7 0d 	call	0x1bae	; 0x1bae <mover_plotter>
					
				}
				Opcion = UART_receiveChar();
    2020:	0e 94 85 18 	call	0x310a	; 0x310a <UART_receiveChar>
    2024:	c8 2f       	mov	r28, r24
			Centrar();
			mover_solenoide(1);
			UART_sendString("Listo!\n");
			_delay_ms(1500);
			Opcion = UART_receiveChar();
			while (Opcion != 0){
    2026:	c1 11       	cpse	r28, r1
    2028:	cf cf       	rjmp	.-98     	; 0x1fc8 <main+0x1b8>
					mover_plotter(2);
					
				}
				Opcion = UART_receiveChar();
			}
			mover_solenoide(0);
    202a:	80 e0       	ldi	r24, 0x00	; 0
    202c:	90 e0       	ldi	r25, 0x00	; 0
    202e:	0e 94 22 18 	call	0x3044	; 0x3044 <mover_solenoide>
    2032:	2f ef       	ldi	r18, 0xFF	; 255
    2034:	8d e3       	ldi	r24, 0x3D	; 61
    2036:	99 e4       	ldi	r25, 0x49	; 73
    2038:	21 50       	subi	r18, 0x01	; 1
    203a:	80 40       	sbci	r24, 0x00	; 0
    203c:	90 40       	sbci	r25, 0x00	; 0
    203e:	e1 f7       	brne	.-8      	; 0x2038 <main+0x228>
    2040:	00 c0       	rjmp	.+0      	; 0x2042 <main+0x232>
    2042:	00 00       	nop
    2044:	eb ce       	rjmp	.-554    	; 0x1e1c <main+0xc>

Disassembly of section .text:

00003118 <__subsf3>:
    3118:	50 58       	subi	r21, 0x80	; 128

0000311a <__addsf3>:
    311a:	bb 27       	eor	r27, r27
    311c:	aa 27       	eor	r26, r26
    311e:	0e 94 7f 15 	call	0x2afe	; 0x2afe <__addsf3x>
    3122:	0c 94 11 18 	jmp	0x3022	; 0x3022 <__fp_round>

Disassembly of section .text:

00002afe <__addsf3x>:
    2afe:	11 c0       	rjmp	.+34     	; 0x2b22 <__addsf3x+0x24>
    2b00:	0e 94 9a 18 	call	0x3134	; 0x3134 <__fp_pscA>
    2b04:	38 f0       	brcs	.+14     	; 0x2b14 <__addsf3x+0x16>
    2b06:	0e 94 a1 18 	call	0x3142	; 0x3142 <__fp_pscB>
    2b0a:	20 f0       	brcs	.+8      	; 0x2b14 <__addsf3x+0x16>
    2b0c:	39 f4       	brne	.+14     	; 0x2b1c <__addsf3x+0x1e>
    2b0e:	9f 3f       	cpi	r25, 0xFF	; 255
    2b10:	19 f4       	brne	.+6      	; 0x2b18 <__addsf3x+0x1a>
    2b12:	26 f4       	brtc	.+8      	; 0x2b1c <__addsf3x+0x1e>
    2b14:	0c 94 cd 18 	jmp	0x319a	; 0x319a <__fp_nan>
    2b18:	0e f4       	brtc	.+2      	; 0x2b1c <__addsf3x+0x1e>
    2b1a:	e0 95       	com	r30
    2b1c:	e7 fb       	bst	r30, 7
    2b1e:	0c 94 af 18 	jmp	0x315e	; 0x315e <__fp_inf>
    2b22:	e9 2f       	mov	r30, r25
    2b24:	0e 94 5a 17 	call	0x2eb4	; 0x2eb4 <__fp_split3>
    2b28:	58 f3       	brcs	.-42     	; 0x2b00 <__addsf3x+0x2>
    2b2a:	ba 17       	cp	r27, r26
    2b2c:	62 07       	cpc	r22, r18
    2b2e:	73 07       	cpc	r23, r19
    2b30:	84 07       	cpc	r24, r20
    2b32:	95 07       	cpc	r25, r21
    2b34:	20 f0       	brcs	.+8      	; 0x2b3e <__addsf3x+0x40>
    2b36:	79 f4       	brne	.+30     	; 0x2b56 <__addsf3x+0x58>
    2b38:	a6 f5       	brtc	.+104    	; 0x2ba2 <__addsf3x+0xa4>
    2b3a:	0c 94 a8 18 	jmp	0x3150	; 0x3150 <__fp_zero>
    2b3e:	0e f4       	brtc	.+2      	; 0x2b42 <__addsf3x+0x44>
    2b40:	e0 95       	com	r30
    2b42:	0b 2e       	mov	r0, r27
    2b44:	ba 2f       	mov	r27, r26
    2b46:	a0 2d       	mov	r26, r0
    2b48:	0b 01       	movw	r0, r22
    2b4a:	b9 01       	movw	r22, r18
    2b4c:	90 01       	movw	r18, r0
    2b4e:	0c 01       	movw	r0, r24
    2b50:	ca 01       	movw	r24, r20
    2b52:	a0 01       	movw	r20, r0
    2b54:	11 24       	eor	r1, r1
    2b56:	ff 27       	eor	r31, r31
    2b58:	59 1b       	sub	r21, r25
    2b5a:	99 f0       	breq	.+38     	; 0x2b82 <__addsf3x+0x84>
    2b5c:	59 3f       	cpi	r21, 0xF9	; 249
    2b5e:	50 f4       	brcc	.+20     	; 0x2b74 <__addsf3x+0x76>
    2b60:	50 3e       	cpi	r21, 0xE0	; 224
    2b62:	68 f1       	brcs	.+90     	; 0x2bbe <__addsf3x+0xc0>
    2b64:	1a 16       	cp	r1, r26
    2b66:	f0 40       	sbci	r31, 0x00	; 0
    2b68:	a2 2f       	mov	r26, r18
    2b6a:	23 2f       	mov	r18, r19
    2b6c:	34 2f       	mov	r19, r20
    2b6e:	44 27       	eor	r20, r20
    2b70:	58 5f       	subi	r21, 0xF8	; 248
    2b72:	f3 cf       	rjmp	.-26     	; 0x2b5a <__addsf3x+0x5c>
    2b74:	46 95       	lsr	r20
    2b76:	37 95       	ror	r19
    2b78:	27 95       	ror	r18
    2b7a:	a7 95       	ror	r26
    2b7c:	f0 40       	sbci	r31, 0x00	; 0
    2b7e:	53 95       	inc	r21
    2b80:	c9 f7       	brne	.-14     	; 0x2b74 <__addsf3x+0x76>
    2b82:	7e f4       	brtc	.+30     	; 0x2ba2 <__addsf3x+0xa4>
    2b84:	1f 16       	cp	r1, r31
    2b86:	ba 0b       	sbc	r27, r26
    2b88:	62 0b       	sbc	r22, r18
    2b8a:	73 0b       	sbc	r23, r19
    2b8c:	84 0b       	sbc	r24, r20
    2b8e:	ba f0       	brmi	.+46     	; 0x2bbe <__addsf3x+0xc0>
    2b90:	91 50       	subi	r25, 0x01	; 1
    2b92:	a1 f0       	breq	.+40     	; 0x2bbc <__addsf3x+0xbe>
    2b94:	ff 0f       	add	r31, r31
    2b96:	bb 1f       	adc	r27, r27
    2b98:	66 1f       	adc	r22, r22
    2b9a:	77 1f       	adc	r23, r23
    2b9c:	88 1f       	adc	r24, r24
    2b9e:	c2 f7       	brpl	.-16     	; 0x2b90 <__addsf3x+0x92>
    2ba0:	0e c0       	rjmp	.+28     	; 0x2bbe <__addsf3x+0xc0>
    2ba2:	ba 0f       	add	r27, r26
    2ba4:	62 1f       	adc	r22, r18
    2ba6:	73 1f       	adc	r23, r19
    2ba8:	84 1f       	adc	r24, r20
    2baa:	48 f4       	brcc	.+18     	; 0x2bbe <__addsf3x+0xc0>
    2bac:	87 95       	ror	r24
    2bae:	77 95       	ror	r23
    2bb0:	67 95       	ror	r22
    2bb2:	b7 95       	ror	r27
    2bb4:	f7 95       	ror	r31
    2bb6:	9e 3f       	cpi	r25, 0xFE	; 254
    2bb8:	08 f0       	brcs	.+2      	; 0x2bbc <__addsf3x+0xbe>
    2bba:	b0 cf       	rjmp	.-160    	; 0x2b1c <__addsf3x+0x1e>
    2bbc:	93 95       	inc	r25
    2bbe:	88 0f       	add	r24, r24
    2bc0:	08 f0       	brcs	.+2      	; 0x2bc4 <__addsf3x+0xc6>
    2bc2:	99 27       	eor	r25, r25
    2bc4:	ee 0f       	add	r30, r30
    2bc6:	97 95       	ror	r25
    2bc8:	87 95       	ror	r24
    2bca:	08 95       	ret

Disassembly of section .text:

00003176 <__cmpsf2>:
    3176:	0e 94 36 17 	call	0x2e6c	; 0x2e6c <__fp_cmp>
    317a:	08 f4       	brcc	.+2      	; 0x317e <__cmpsf2+0x8>
    317c:	81 e0       	ldi	r24, 0x01	; 1
    317e:	08 95       	ret

Disassembly of section .text:

00003126 <__fixsfsi>:
    3126:	0e 94 07 17 	call	0x2e0e	; 0x2e0e <__fixunssfsi>
    312a:	68 94       	set
    312c:	b1 11       	cpse	r27, r1
    312e:	0c 94 a9 18 	jmp	0x3152	; 0x3152 <__fp_szero>
    3132:	08 95       	ret

Disassembly of section .text:

00002e0e <__fixunssfsi>:
    2e0e:	0e 94 62 17 	call	0x2ec4	; 0x2ec4 <__fp_splitA>
    2e12:	88 f0       	brcs	.+34     	; 0x2e36 <__fixunssfsi+0x28>
    2e14:	9f 57       	subi	r25, 0x7F	; 127
    2e16:	98 f0       	brcs	.+38     	; 0x2e3e <__fixunssfsi+0x30>
    2e18:	b9 2f       	mov	r27, r25
    2e1a:	99 27       	eor	r25, r25
    2e1c:	b7 51       	subi	r27, 0x17	; 23
    2e1e:	b0 f0       	brcs	.+44     	; 0x2e4c <__fixunssfsi+0x3e>
    2e20:	e1 f0       	breq	.+56     	; 0x2e5a <__fixunssfsi+0x4c>
    2e22:	66 0f       	add	r22, r22
    2e24:	77 1f       	adc	r23, r23
    2e26:	88 1f       	adc	r24, r24
    2e28:	99 1f       	adc	r25, r25
    2e2a:	1a f0       	brmi	.+6      	; 0x2e32 <__fixunssfsi+0x24>
    2e2c:	ba 95       	dec	r27
    2e2e:	c9 f7       	brne	.-14     	; 0x2e22 <__fixunssfsi+0x14>
    2e30:	14 c0       	rjmp	.+40     	; 0x2e5a <__fixunssfsi+0x4c>
    2e32:	b1 30       	cpi	r27, 0x01	; 1
    2e34:	91 f0       	breq	.+36     	; 0x2e5a <__fixunssfsi+0x4c>
    2e36:	0e 94 a8 18 	call	0x3150	; 0x3150 <__fp_zero>
    2e3a:	b1 e0       	ldi	r27, 0x01	; 1
    2e3c:	08 95       	ret
    2e3e:	0c 94 a8 18 	jmp	0x3150	; 0x3150 <__fp_zero>
    2e42:	67 2f       	mov	r22, r23
    2e44:	78 2f       	mov	r23, r24
    2e46:	88 27       	eor	r24, r24
    2e48:	b8 5f       	subi	r27, 0xF8	; 248
    2e4a:	39 f0       	breq	.+14     	; 0x2e5a <__fixunssfsi+0x4c>
    2e4c:	b9 3f       	cpi	r27, 0xF9	; 249
    2e4e:	cc f3       	brlt	.-14     	; 0x2e42 <__fixunssfsi+0x34>
    2e50:	86 95       	lsr	r24
    2e52:	77 95       	ror	r23
    2e54:	67 95       	ror	r22
    2e56:	b3 95       	inc	r27
    2e58:	d9 f7       	brne	.-10     	; 0x2e50 <__fixunssfsi+0x42>
    2e5a:	3e f4       	brtc	.+14     	; 0x2e6a <__fixunssfsi+0x5c>
    2e5c:	90 95       	com	r25
    2e5e:	80 95       	com	r24
    2e60:	70 95       	com	r23
    2e62:	61 95       	neg	r22
    2e64:	7f 4f       	sbci	r23, 0xFF	; 255
    2e66:	8f 4f       	sbci	r24, 0xFF	; 255
    2e68:	9f 4f       	sbci	r25, 0xFF	; 255
    2e6a:	08 95       	ret

Disassembly of section .text:

00002e6c <__fp_cmp>:
    2e6c:	99 0f       	add	r25, r25
    2e6e:	00 08       	sbc	r0, r0
    2e70:	55 0f       	add	r21, r21
    2e72:	aa 0b       	sbc	r26, r26
    2e74:	e0 e8       	ldi	r30, 0x80	; 128
    2e76:	fe ef       	ldi	r31, 0xFE	; 254
    2e78:	16 16       	cp	r1, r22
    2e7a:	17 06       	cpc	r1, r23
    2e7c:	e8 07       	cpc	r30, r24
    2e7e:	f9 07       	cpc	r31, r25
    2e80:	c0 f0       	brcs	.+48     	; 0x2eb2 <__fp_cmp+0x46>
    2e82:	12 16       	cp	r1, r18
    2e84:	13 06       	cpc	r1, r19
    2e86:	e4 07       	cpc	r30, r20
    2e88:	f5 07       	cpc	r31, r21
    2e8a:	98 f0       	brcs	.+38     	; 0x2eb2 <__fp_cmp+0x46>
    2e8c:	62 1b       	sub	r22, r18
    2e8e:	73 0b       	sbc	r23, r19
    2e90:	84 0b       	sbc	r24, r20
    2e92:	95 0b       	sbc	r25, r21
    2e94:	39 f4       	brne	.+14     	; 0x2ea4 <__fp_cmp+0x38>
    2e96:	0a 26       	eor	r0, r26
    2e98:	61 f0       	breq	.+24     	; 0x2eb2 <__fp_cmp+0x46>
    2e9a:	23 2b       	or	r18, r19
    2e9c:	24 2b       	or	r18, r20
    2e9e:	25 2b       	or	r18, r21
    2ea0:	21 f4       	brne	.+8      	; 0x2eaa <__fp_cmp+0x3e>
    2ea2:	08 95       	ret
    2ea4:	0a 26       	eor	r0, r26
    2ea6:	09 f4       	brne	.+2      	; 0x2eaa <__fp_cmp+0x3e>
    2ea8:	a1 40       	sbci	r26, 0x01	; 1
    2eaa:	a6 95       	lsr	r26
    2eac:	8f ef       	ldi	r24, 0xFF	; 255
    2eae:	81 1d       	adc	r24, r1
    2eb0:	81 1d       	adc	r24, r1
    2eb2:	08 95       	ret

Disassembly of section .text:

0000315e <__fp_inf>:
    315e:	97 f9       	bld	r25, 7
    3160:	9f 67       	ori	r25, 0x7F	; 127
    3162:	80 e8       	ldi	r24, 0x80	; 128
    3164:	70 e0       	ldi	r23, 0x00	; 0
    3166:	60 e0       	ldi	r22, 0x00	; 0
    3168:	08 95       	ret

Disassembly of section .text:

0000319a <__fp_nan>:
    319a:	9f ef       	ldi	r25, 0xFF	; 255
    319c:	80 ec       	ldi	r24, 0xC0	; 192
    319e:	08 95       	ret

Disassembly of section .text:

00003134 <__fp_pscA>:
    3134:	00 24       	eor	r0, r0
    3136:	0a 94       	dec	r0
    3138:	16 16       	cp	r1, r22
    313a:	17 06       	cpc	r1, r23
    313c:	18 06       	cpc	r1, r24
    313e:	09 06       	cpc	r0, r25
    3140:	08 95       	ret

Disassembly of section .text:

00003142 <__fp_pscB>:
    3142:	00 24       	eor	r0, r0
    3144:	0a 94       	dec	r0
    3146:	12 16       	cp	r1, r18
    3148:	13 06       	cpc	r1, r19
    314a:	14 06       	cpc	r1, r20
    314c:	05 06       	cpc	r0, r21
    314e:	08 95       	ret

Disassembly of section .text:

00003022 <__fp_round>:
    3022:	09 2e       	mov	r0, r25
    3024:	03 94       	inc	r0
    3026:	00 0c       	add	r0, r0
    3028:	11 f4       	brne	.+4      	; 0x302e <__fp_round+0xc>
    302a:	88 23       	and	r24, r24
    302c:	52 f0       	brmi	.+20     	; 0x3042 <__fp_round+0x20>
    302e:	bb 0f       	add	r27, r27
    3030:	40 f4       	brcc	.+16     	; 0x3042 <__fp_round+0x20>
    3032:	bf 2b       	or	r27, r31
    3034:	11 f4       	brne	.+4      	; 0x303a <__fp_round+0x18>
    3036:	60 ff       	sbrs	r22, 0
    3038:	04 c0       	rjmp	.+8      	; 0x3042 <__fp_round+0x20>
    303a:	6f 5f       	subi	r22, 0xFF	; 255
    303c:	7f 4f       	sbci	r23, 0xFF	; 255
    303e:	8f 4f       	sbci	r24, 0xFF	; 255
    3040:	9f 4f       	sbci	r25, 0xFF	; 255
    3042:	08 95       	ret

Disassembly of section .text:

00002eb4 <__fp_split3>:
    2eb4:	57 fd       	sbrc	r21, 7
    2eb6:	90 58       	subi	r25, 0x80	; 128
    2eb8:	44 0f       	add	r20, r20
    2eba:	55 1f       	adc	r21, r21
    2ebc:	59 f0       	breq	.+22     	; 0x2ed4 <__fp_splitA+0x10>
    2ebe:	5f 3f       	cpi	r21, 0xFF	; 255
    2ec0:	71 f0       	breq	.+28     	; 0x2ede <__fp_splitA+0x1a>
    2ec2:	47 95       	ror	r20

00002ec4 <__fp_splitA>:
    2ec4:	88 0f       	add	r24, r24
    2ec6:	97 fb       	bst	r25, 7
    2ec8:	99 1f       	adc	r25, r25
    2eca:	61 f0       	breq	.+24     	; 0x2ee4 <__fp_splitA+0x20>
    2ecc:	9f 3f       	cpi	r25, 0xFF	; 255
    2ece:	79 f0       	breq	.+30     	; 0x2eee <__fp_splitA+0x2a>
    2ed0:	87 95       	ror	r24
    2ed2:	08 95       	ret
    2ed4:	12 16       	cp	r1, r18
    2ed6:	13 06       	cpc	r1, r19
    2ed8:	14 06       	cpc	r1, r20
    2eda:	55 1f       	adc	r21, r21
    2edc:	f2 cf       	rjmp	.-28     	; 0x2ec2 <__fp_split3+0xe>
    2ede:	46 95       	lsr	r20
    2ee0:	f1 df       	rcall	.-30     	; 0x2ec4 <__fp_splitA>
    2ee2:	08 c0       	rjmp	.+16     	; 0x2ef4 <__fp_splitA+0x30>
    2ee4:	16 16       	cp	r1, r22
    2ee6:	17 06       	cpc	r1, r23
    2ee8:	18 06       	cpc	r1, r24
    2eea:	99 1f       	adc	r25, r25
    2eec:	f1 cf       	rjmp	.-30     	; 0x2ed0 <__fp_splitA+0xc>
    2eee:	86 95       	lsr	r24
    2ef0:	71 05       	cpc	r23, r1
    2ef2:	61 05       	cpc	r22, r1
    2ef4:	08 94       	sec
    2ef6:	08 95       	ret

Disassembly of section .text:

00003150 <__fp_zero>:
    3150:	e8 94       	clt

00003152 <__fp_szero>:
    3152:	bb 27       	eor	r27, r27
    3154:	66 27       	eor	r22, r22
    3156:	77 27       	eor	r23, r23
    3158:	cb 01       	movw	r24, r22
    315a:	97 f9       	bld	r25, 7
    315c:	08 95       	ret

Disassembly of section .text:

00003192 <__mulsf3>:
    3192:	0e 94 15 15 	call	0x2a2a	; 0x2a2a <__mulsf3x>
    3196:	0c 94 11 18 	jmp	0x3022	; 0x3022 <__fp_round>

Disassembly of section .text:

00002a2a <__mulsf3x>:
    2a2a:	0f c0       	rjmp	.+30     	; 0x2a4a <__mulsf3x+0x20>
    2a2c:	0e 94 9a 18 	call	0x3134	; 0x3134 <__fp_pscA>
    2a30:	38 f0       	brcs	.+14     	; 0x2a40 <__mulsf3x+0x16>
    2a32:	0e 94 a1 18 	call	0x3142	; 0x3142 <__fp_pscB>
    2a36:	20 f0       	brcs	.+8      	; 0x2a40 <__mulsf3x+0x16>
    2a38:	95 23       	and	r25, r21
    2a3a:	11 f0       	breq	.+4      	; 0x2a40 <__mulsf3x+0x16>
    2a3c:	0c 94 af 18 	jmp	0x315e	; 0x315e <__fp_inf>
    2a40:	0c 94 cd 18 	jmp	0x319a	; 0x319a <__fp_nan>
    2a44:	11 24       	eor	r1, r1
    2a46:	0c 94 a9 18 	jmp	0x3152	; 0x3152 <__fp_szero>
    2a4a:	0e 94 5a 17 	call	0x2eb4	; 0x2eb4 <__fp_split3>
    2a4e:	70 f3       	brcs	.-36     	; 0x2a2c <__mulsf3x+0x2>

00002a50 <__mulsf3_pse>:
    2a50:	95 9f       	mul	r25, r21
    2a52:	c1 f3       	breq	.-16     	; 0x2a44 <__mulsf3x+0x1a>
    2a54:	95 0f       	add	r25, r21
    2a56:	50 e0       	ldi	r21, 0x00	; 0
    2a58:	55 1f       	adc	r21, r21
    2a5a:	62 9f       	mul	r22, r18
    2a5c:	f0 01       	movw	r30, r0
    2a5e:	72 9f       	mul	r23, r18
    2a60:	bb 27       	eor	r27, r27
    2a62:	f0 0d       	add	r31, r0
    2a64:	b1 1d       	adc	r27, r1
    2a66:	63 9f       	mul	r22, r19
    2a68:	aa 27       	eor	r26, r26
    2a6a:	f0 0d       	add	r31, r0
    2a6c:	b1 1d       	adc	r27, r1
    2a6e:	aa 1f       	adc	r26, r26
    2a70:	64 9f       	mul	r22, r20
    2a72:	66 27       	eor	r22, r22
    2a74:	b0 0d       	add	r27, r0
    2a76:	a1 1d       	adc	r26, r1
    2a78:	66 1f       	adc	r22, r22
    2a7a:	82 9f       	mul	r24, r18
    2a7c:	22 27       	eor	r18, r18
    2a7e:	b0 0d       	add	r27, r0
    2a80:	a1 1d       	adc	r26, r1
    2a82:	62 1f       	adc	r22, r18
    2a84:	73 9f       	mul	r23, r19
    2a86:	b0 0d       	add	r27, r0
    2a88:	a1 1d       	adc	r26, r1
    2a8a:	62 1f       	adc	r22, r18
    2a8c:	83 9f       	mul	r24, r19
    2a8e:	a0 0d       	add	r26, r0
    2a90:	61 1d       	adc	r22, r1
    2a92:	22 1f       	adc	r18, r18
    2a94:	74 9f       	mul	r23, r20
    2a96:	33 27       	eor	r19, r19
    2a98:	a0 0d       	add	r26, r0
    2a9a:	61 1d       	adc	r22, r1
    2a9c:	23 1f       	adc	r18, r19
    2a9e:	84 9f       	mul	r24, r20
    2aa0:	60 0d       	add	r22, r0
    2aa2:	21 1d       	adc	r18, r1
    2aa4:	82 2f       	mov	r24, r18
    2aa6:	76 2f       	mov	r23, r22
    2aa8:	6a 2f       	mov	r22, r26
    2aaa:	11 24       	eor	r1, r1
    2aac:	9f 57       	subi	r25, 0x7F	; 127
    2aae:	50 40       	sbci	r21, 0x00	; 0
    2ab0:	9a f0       	brmi	.+38     	; 0x2ad8 <__mulsf3_pse+0x88>
    2ab2:	f1 f0       	breq	.+60     	; 0x2af0 <__mulsf3_pse+0xa0>
    2ab4:	88 23       	and	r24, r24
    2ab6:	4a f0       	brmi	.+18     	; 0x2aca <__mulsf3_pse+0x7a>
    2ab8:	ee 0f       	add	r30, r30
    2aba:	ff 1f       	adc	r31, r31
    2abc:	bb 1f       	adc	r27, r27
    2abe:	66 1f       	adc	r22, r22
    2ac0:	77 1f       	adc	r23, r23
    2ac2:	88 1f       	adc	r24, r24
    2ac4:	91 50       	subi	r25, 0x01	; 1
    2ac6:	50 40       	sbci	r21, 0x00	; 0
    2ac8:	a9 f7       	brne	.-22     	; 0x2ab4 <__mulsf3_pse+0x64>
    2aca:	9e 3f       	cpi	r25, 0xFE	; 254
    2acc:	51 05       	cpc	r21, r1
    2ace:	80 f0       	brcs	.+32     	; 0x2af0 <__mulsf3_pse+0xa0>
    2ad0:	0c 94 af 18 	jmp	0x315e	; 0x315e <__fp_inf>
    2ad4:	0c 94 a9 18 	jmp	0x3152	; 0x3152 <__fp_szero>
    2ad8:	5f 3f       	cpi	r21, 0xFF	; 255
    2ada:	e4 f3       	brlt	.-8      	; 0x2ad4 <__mulsf3_pse+0x84>
    2adc:	98 3e       	cpi	r25, 0xE8	; 232
    2ade:	d4 f3       	brlt	.-12     	; 0x2ad4 <__mulsf3_pse+0x84>
    2ae0:	86 95       	lsr	r24
    2ae2:	77 95       	ror	r23
    2ae4:	67 95       	ror	r22
    2ae6:	b7 95       	ror	r27
    2ae8:	f7 95       	ror	r31
    2aea:	e7 95       	ror	r30
    2aec:	9f 5f       	subi	r25, 0xFF	; 255
    2aee:	c1 f7       	brne	.-16     	; 0x2ae0 <__mulsf3_pse+0x90>
    2af0:	fe 2b       	or	r31, r30
    2af2:	88 0f       	add	r24, r24
    2af4:	91 1d       	adc	r25, r1
    2af6:	96 95       	lsr	r25
    2af8:	87 95       	ror	r24
    2afa:	97 f9       	bld	r25, 7
    2afc:	08 95       	ret

Disassembly of section .text.cosf:

000023ac <cosf>:
    23ac:	a4 e0       	ldi	r26, 0x04	; 4
    23ae:	b0 e0       	ldi	r27, 0x00	; 0
    23b0:	ec ed       	ldi	r30, 0xDC	; 220
    23b2:	f1 e1       	ldi	r31, 0x11	; 17
    23b4:	0c 94 a6 17 	jmp	0x2f4c	; 0x2f4c <__prologue_saves__+0x14>
    23b8:	8b 01       	movw	r16, r22
    23ba:	9c 01       	movw	r18, r24
    23bc:	3f 77       	andi	r19, 0x7F	; 127
    23be:	0b 3d       	cpi	r16, 0xDB	; 219
    23c0:	4f e0       	ldi	r20, 0x0F	; 15
    23c2:	14 07       	cpc	r17, r20
    23c4:	49 e4       	ldi	r20, 0x49	; 73
    23c6:	24 07       	cpc	r18, r20
    23c8:	4f e3       	ldi	r20, 0x3F	; 63
    23ca:	34 07       	cpc	r19, r20
    23cc:	b8 f4       	brcc	.+46     	; 0x23fc <cosf+0x50>
    23ce:	01 15       	cp	r16, r1
    23d0:	11 05       	cpc	r17, r1
    23d2:	40 e8       	ldi	r20, 0x80	; 128
    23d4:	24 07       	cpc	r18, r20
    23d6:	49 e3       	ldi	r20, 0x39	; 57
    23d8:	34 07       	cpc	r19, r20
    23da:	08 f0       	brcs	.+2      	; 0x23de <cosf+0x32>
    23dc:	8d c0       	rjmp	.+282    	; 0x24f8 <cosf+0x14c>
    23de:	20 e0       	ldi	r18, 0x00	; 0
    23e0:	30 e0       	ldi	r19, 0x00	; 0
    23e2:	40 e8       	ldi	r20, 0x80	; 128
    23e4:	5b e7       	ldi	r21, 0x7B	; 123
    23e6:	0e 94 8d 18 	call	0x311a	; 0x311a <__addsf3>
    23ea:	69 83       	std	Y+1, r22	; 0x01
    23ec:	7a 83       	std	Y+2, r23	; 0x02
    23ee:	8b 83       	std	Y+3, r24	; 0x03
    23f0:	9c 83       	std	Y+4, r25	; 0x04
    23f2:	60 e0       	ldi	r22, 0x00	; 0
    23f4:	70 e0       	ldi	r23, 0x00	; 0
    23f6:	80 e8       	ldi	r24, 0x80	; 128
    23f8:	9f e3       	ldi	r25, 0x3F	; 63
    23fa:	89 c0       	rjmp	.+274    	; 0x250e <cosf+0x162>
    23fc:	6b 01       	movw	r12, r22
    23fe:	7c 01       	movw	r14, r24
    2400:	cc 24       	eor	r12, r12
    2402:	f7 fc       	sbrc	r15, 7
    2404:	c3 94       	inc	r12
    2406:	dd 24       	eor	r13, r13
    2408:	ee 24       	eor	r14, r14
    240a:	ff 24       	eor	r15, r15
    240c:	02 3d       	cpi	r16, 0xD2	; 210
    240e:	43 e5       	ldi	r20, 0x53	; 83
    2410:	14 07       	cpc	r17, r20
    2412:	4b e7       	ldi	r20, 0x7B	; 123
    2414:	24 07       	cpc	r18, r20
    2416:	40 e4       	ldi	r20, 0x40	; 64
    2418:	34 07       	cpc	r19, r20
    241a:	30 f5       	brcc	.+76     	; 0x2468 <cosf+0xbc>
    241c:	04 3e       	cpi	r16, 0xE4	; 228
    241e:	4b ec       	ldi	r20, 0xCB	; 203
    2420:	14 07       	cpc	r17, r20
    2422:	46 e1       	ldi	r20, 0x16	; 22
    2424:	24 07       	cpc	r18, r20
    2426:	40 e4       	ldi	r20, 0x40	; 64
    2428:	34 07       	cpc	r19, r20
    242a:	68 f0       	brcs	.+26     	; 0x2446 <cosf+0x9a>
    242c:	2b ed       	ldi	r18, 0xDB	; 219
    242e:	3f e0       	ldi	r19, 0x0F	; 15
    2430:	49 e4       	ldi	r20, 0x49	; 73
    2432:	50 e4       	ldi	r21, 0x40	; 64
    2434:	c1 14       	cp	r12, r1
    2436:	d1 04       	cpc	r13, r1
    2438:	19 f0       	breq	.+6      	; 0x2440 <cosf+0x94>
    243a:	0e 94 8d 18 	call	0x311a	; 0x311a <__addsf3>
    243e:	61 c0       	rjmp	.+194    	; 0x2502 <cosf+0x156>
    2440:	0e 94 8c 18 	call	0x3118	; 0x3118 <__subsf3>
    2444:	5e c0       	rjmp	.+188    	; 0x2502 <cosf+0x156>
    2446:	c1 14       	cp	r12, r1
    2448:	d1 04       	cpc	r13, r1
    244a:	39 f0       	breq	.+14     	; 0x245a <cosf+0xae>
    244c:	2b ed       	ldi	r18, 0xDB	; 219
    244e:	3f e0       	ldi	r19, 0x0F	; 15
    2450:	49 ec       	ldi	r20, 0xC9	; 201
    2452:	5f e3       	ldi	r21, 0x3F	; 63
    2454:	0e 94 8d 18 	call	0x311a	; 0x311a <__addsf3>
    2458:	58 c0       	rjmp	.+176    	; 0x250a <cosf+0x15e>
    245a:	9b 01       	movw	r18, r22
    245c:	ac 01       	movw	r20, r24
    245e:	6b ed       	ldi	r22, 0xDB	; 219
    2460:	7f e0       	ldi	r23, 0x0F	; 15
    2462:	89 ec       	ldi	r24, 0xC9	; 201
    2464:	9f e3       	ldi	r25, 0x3F	; 63
    2466:	25 c0       	rjmp	.+74     	; 0x24b2 <cosf+0x106>
    2468:	06 3d       	cpi	r16, 0xD6	; 214
    246a:	41 e3       	ldi	r20, 0x31	; 49
    246c:	14 07       	cpc	r17, r20
    246e:	42 ee       	ldi	r20, 0xE2	; 226
    2470:	24 07       	cpc	r18, r20
    2472:	40 e4       	ldi	r20, 0x40	; 64
    2474:	34 07       	cpc	r19, r20
    2476:	00 f5       	brcc	.+64     	; 0x24b8 <cosf+0x10c>
    2478:	00 3e       	cpi	r16, 0xE0	; 224
    247a:	4d ee       	ldi	r20, 0xED	; 237
    247c:	14 07       	cpc	r17, r20
    247e:	4f ea       	ldi	r20, 0xAF	; 175
    2480:	24 07       	cpc	r18, r20
    2482:	40 e4       	ldi	r20, 0x40	; 64
    2484:	34 07       	cpc	r19, r20
    2486:	68 f0       	brcs	.+26     	; 0x24a2 <cosf+0xf6>
    2488:	2b ed       	ldi	r18, 0xDB	; 219
    248a:	3f e0       	ldi	r19, 0x0F	; 15
    248c:	49 ec       	ldi	r20, 0xC9	; 201
    248e:	50 e4       	ldi	r21, 0x40	; 64
    2490:	c1 14       	cp	r12, r1
    2492:	d1 04       	cpc	r13, r1
    2494:	19 f0       	breq	.+6      	; 0x249c <cosf+0xf0>
    2496:	0e 94 8d 18 	call	0x311a	; 0x311a <__addsf3>
    249a:	2e c0       	rjmp	.+92     	; 0x24f8 <cosf+0x14c>
    249c:	0e 94 8c 18 	call	0x3118	; 0x3118 <__subsf3>
    24a0:	2b c0       	rjmp	.+86     	; 0x24f8 <cosf+0x14c>
    24a2:	c1 14       	cp	r12, r1
    24a4:	d1 04       	cpc	r13, r1
    24a6:	09 f0       	breq	.+2      	; 0x24aa <cosf+0xfe>
    24a8:	90 58       	subi	r25, 0x80	; 128
    24aa:	24 ee       	ldi	r18, 0xE4	; 228
    24ac:	3b ec       	ldi	r19, 0xCB	; 203
    24ae:	46 e9       	ldi	r20, 0x96	; 150
    24b0:	50 e4       	ldi	r21, 0x40	; 64
    24b2:	0e 94 8c 18 	call	0x3118	; 0x3118 <__subsf3>
    24b6:	29 c0       	rjmp	.+82     	; 0x250a <cosf+0x15e>
    24b8:	01 15       	cp	r16, r1
    24ba:	11 05       	cpc	r17, r1
    24bc:	40 e8       	ldi	r20, 0x80	; 128
    24be:	24 07       	cpc	r18, r20
    24c0:	4f e7       	ldi	r20, 0x7F	; 127
    24c2:	34 07       	cpc	r19, r20
    24c4:	28 f0       	brcs	.+10     	; 0x24d0 <cosf+0x124>
    24c6:	9b 01       	movw	r18, r22
    24c8:	ac 01       	movw	r20, r24
    24ca:	0e 94 8c 18 	call	0x3118	; 0x3118 <__subsf3>
    24ce:	1f c0       	rjmp	.+62     	; 0x250e <cosf+0x162>
    24d0:	ae 01       	movw	r20, r28
    24d2:	4f 5f       	subi	r20, 0xFF	; 255
    24d4:	5f 4f       	sbci	r21, 0xFF	; 255
    24d6:	0e 94 08 11 	call	0x2210	; 0x2210 <__rem_pio2f>
    24da:	9c 01       	movw	r18, r24
    24dc:	23 70       	andi	r18, 0x03	; 3
    24de:	33 27       	eor	r19, r19
    24e0:	69 81       	ldd	r22, Y+1	; 0x01
    24e2:	7a 81       	ldd	r23, Y+2	; 0x02
    24e4:	8b 81       	ldd	r24, Y+3	; 0x03
    24e6:	9c 81       	ldd	r25, Y+4	; 0x04
    24e8:	21 30       	cpi	r18, 0x01	; 1
    24ea:	31 05       	cpc	r19, r1
    24ec:	41 f0       	breq	.+16     	; 0x24fe <cosf+0x152>
    24ee:	22 30       	cpi	r18, 0x02	; 2
    24f0:	31 05       	cpc	r19, r1
    24f2:	39 f0       	breq	.+14     	; 0x2502 <cosf+0x156>
    24f4:	23 2b       	or	r18, r19
    24f6:	49 f4       	brne	.+18     	; 0x250a <cosf+0x15e>
    24f8:	0e 94 9e 14 	call	0x293c	; 0x293c <__cosdf>
    24fc:	08 c0       	rjmp	.+16     	; 0x250e <cosf+0x162>
    24fe:	90 58       	subi	r25, 0x80	; 128
    2500:	04 c0       	rjmp	.+8      	; 0x250a <cosf+0x15e>
    2502:	0e 94 9e 14 	call	0x293c	; 0x293c <__cosdf>
    2506:	90 58       	subi	r25, 0x80	; 128
    2508:	02 c0       	rjmp	.+4      	; 0x250e <cosf+0x162>
    250a:	0e 94 25 14 	call	0x284a	; 0x284a <__sindf>
    250e:	24 96       	adiw	r28, 0x04	; 4
    2510:	e8 e0       	ldi	r30, 0x08	; 8
    2512:	0c 94 c2 17 	jmp	0x2f84	; 0x2f84 <__epilogue_restores__+0x14>

Disassembly of section .text.sinf:

00002046 <sinf>:
    2046:	cf 92       	push	r12
    2048:	df 92       	push	r13
    204a:	ef 92       	push	r14
    204c:	ff 92       	push	r15
    204e:	cf 93       	push	r28
    2050:	df 93       	push	r29
    2052:	00 d0       	rcall	.+0      	; 0x2054 <sinf+0xe>
    2054:	00 d0       	rcall	.+0      	; 0x2056 <sinf+0x10>
    2056:	cd b7       	in	r28, 0x3d	; 61
    2058:	de b7       	in	r29, 0x3e	; 62
    205a:	6b 01       	movw	r12, r22
    205c:	7c 01       	movw	r14, r24
    205e:	dc 01       	movw	r26, r24
    2060:	cb 01       	movw	r24, r22
    2062:	bf 77       	andi	r27, 0x7F	; 127
    2064:	8b 3d       	cpi	r24, 0xDB	; 219
    2066:	2f e0       	ldi	r18, 0x0F	; 15
    2068:	92 07       	cpc	r25, r18
    206a:	29 e4       	ldi	r18, 0x49	; 73
    206c:	a2 07       	cpc	r26, r18
    206e:	2f e3       	ldi	r18, 0x3F	; 63
    2070:	b2 07       	cpc	r27, r18
    2072:	28 f5       	brcc	.+74     	; 0x20be <sinf+0x78>
    2074:	00 97       	sbiw	r24, 0x00	; 0
    2076:	20 e8       	ldi	r18, 0x80	; 128
    2078:	a2 07       	cpc	r26, r18
    207a:	29 e3       	ldi	r18, 0x39	; 57
    207c:	b2 07       	cpc	r27, r18
    207e:	e0 f4       	brcc	.+56     	; 0x20b8 <sinf+0x72>
    2080:	00 97       	sbiw	r24, 0x00	; 0
    2082:	a0 48       	sbci	r26, 0x80	; 128
    2084:	b1 05       	cpc	r27, r1
    2086:	48 f4       	brcc	.+18     	; 0x209a <sinf+0x54>
    2088:	20 e0       	ldi	r18, 0x00	; 0
    208a:	30 e0       	ldi	r19, 0x00	; 0
    208c:	40 e8       	ldi	r20, 0x80	; 128
    208e:	53 e0       	ldi	r21, 0x03	; 3
    2090:	c7 01       	movw	r24, r14
    2092:	b6 01       	movw	r22, r12
    2094:	0e 94 c9 18 	call	0x3192	; 0x3192 <__mulsf3>
    2098:	08 c0       	rjmp	.+16     	; 0x20aa <sinf+0x64>
    209a:	20 e0       	ldi	r18, 0x00	; 0
    209c:	30 e0       	ldi	r19, 0x00	; 0
    209e:	40 e8       	ldi	r20, 0x80	; 128
    20a0:	5b e7       	ldi	r21, 0x7B	; 123
    20a2:	c7 01       	movw	r24, r14
    20a4:	b6 01       	movw	r22, r12
    20a6:	0e 94 8d 18 	call	0x311a	; 0x311a <__addsf3>
    20aa:	69 83       	std	Y+1, r22	; 0x01
    20ac:	7a 83       	std	Y+2, r23	; 0x02
    20ae:	8b 83       	std	Y+3, r24	; 0x03
    20b0:	9c 83       	std	Y+4, r25	; 0x04
    20b2:	c7 01       	movw	r24, r14
    20b4:	b6 01       	movw	r22, r12
    20b6:	a1 c0       	rjmp	.+322    	; 0x21fa <sinf+0x1b4>
    20b8:	c7 01       	movw	r24, r14
    20ba:	b6 01       	movw	r22, r12
    20bc:	98 c0       	rjmp	.+304    	; 0x21ee <sinf+0x1a8>
    20be:	b7 01       	movw	r22, r14
    20c0:	a6 01       	movw	r20, r12
    20c2:	44 27       	eor	r20, r20
    20c4:	77 fd       	sbrc	r23, 7
    20c6:	43 95       	inc	r20
    20c8:	55 27       	eor	r21, r21
    20ca:	66 27       	eor	r22, r22
    20cc:	77 27       	eor	r23, r23
    20ce:	82 3d       	cpi	r24, 0xD2	; 210
    20d0:	23 e5       	ldi	r18, 0x53	; 83
    20d2:	92 07       	cpc	r25, r18
    20d4:	2b e7       	ldi	r18, 0x7B	; 123
    20d6:	a2 07       	cpc	r26, r18
    20d8:	20 e4       	ldi	r18, 0x40	; 64
    20da:	b2 07       	cpc	r27, r18
    20dc:	68 f5       	brcc	.+90     	; 0x2138 <sinf+0xf2>
    20de:	84 3e       	cpi	r24, 0xE4	; 228
    20e0:	9b 4c       	sbci	r25, 0xCB	; 203
    20e2:	a6 41       	sbci	r26, 0x16	; 22
    20e4:	b0 44       	sbci	r27, 0x40	; 64
    20e6:	a0 f4       	brcc	.+40     	; 0x2110 <sinf+0xca>
    20e8:	45 2b       	or	r20, r21
    20ea:	49 f0       	breq	.+18     	; 0x20fe <sinf+0xb8>
    20ec:	2b ed       	ldi	r18, 0xDB	; 219
    20ee:	3f e0       	ldi	r19, 0x0F	; 15
    20f0:	49 ec       	ldi	r20, 0xC9	; 201
    20f2:	5f e3       	ldi	r21, 0x3F	; 63
    20f4:	c7 01       	movw	r24, r14
    20f6:	b6 01       	movw	r22, r12
    20f8:	0e 94 8d 18 	call	0x311a	; 0x311a <__addsf3>
    20fc:	7b c0       	rjmp	.+246    	; 0x21f4 <sinf+0x1ae>
    20fe:	2b ed       	ldi	r18, 0xDB	; 219
    2100:	3f e0       	ldi	r19, 0x0F	; 15
    2102:	49 ec       	ldi	r20, 0xC9	; 201
    2104:	5f e3       	ldi	r21, 0x3F	; 63
    2106:	c7 01       	movw	r24, r14
    2108:	b6 01       	movw	r22, r12
    210a:	0e 94 8c 18 	call	0x3118	; 0x3118 <__subsf3>
    210e:	6b c0       	rjmp	.+214    	; 0x21e6 <sinf+0x1a0>
    2110:	45 2b       	or	r20, r21
    2112:	49 f0       	breq	.+18     	; 0x2126 <sinf+0xe0>
    2114:	2b ed       	ldi	r18, 0xDB	; 219
    2116:	3f e0       	ldi	r19, 0x0F	; 15
    2118:	49 e4       	ldi	r20, 0x49	; 73
    211a:	50 e4       	ldi	r21, 0x40	; 64
    211c:	c7 01       	movw	r24, r14
    211e:	b6 01       	movw	r22, r12
    2120:	0e 94 8d 18 	call	0x311a	; 0x311a <__addsf3>
    2124:	63 c0       	rjmp	.+198    	; 0x21ec <sinf+0x1a6>
    2126:	2b ed       	ldi	r18, 0xDB	; 219
    2128:	3f e0       	ldi	r19, 0x0F	; 15
    212a:	49 e4       	ldi	r20, 0x49	; 73
    212c:	50 e4       	ldi	r21, 0x40	; 64
    212e:	c7 01       	movw	r24, r14
    2130:	b6 01       	movw	r22, r12
    2132:	0e 94 8c 18 	call	0x3118	; 0x3118 <__subsf3>
    2136:	5a c0       	rjmp	.+180    	; 0x21ec <sinf+0x1a6>
    2138:	86 3d       	cpi	r24, 0xD6	; 214
    213a:	21 e3       	ldi	r18, 0x31	; 49
    213c:	92 07       	cpc	r25, r18
    213e:	22 ee       	ldi	r18, 0xE2	; 226
    2140:	a2 07       	cpc	r26, r18
    2142:	20 e4       	ldi	r18, 0x40	; 64
    2144:	b2 07       	cpc	r27, r18
    2146:	68 f5       	brcc	.+90     	; 0x21a2 <sinf+0x15c>
    2148:	80 3e       	cpi	r24, 0xE0	; 224
    214a:	9d 4e       	sbci	r25, 0xED	; 237
    214c:	af 4a       	sbci	r26, 0xAF	; 175
    214e:	b0 44       	sbci	r27, 0x40	; 64
    2150:	a0 f4       	brcc	.+40     	; 0x217a <sinf+0x134>
    2152:	45 2b       	or	r20, r21
    2154:	49 f0       	breq	.+18     	; 0x2168 <sinf+0x122>
    2156:	24 ee       	ldi	r18, 0xE4	; 228
    2158:	3b ec       	ldi	r19, 0xCB	; 203
    215a:	46 e9       	ldi	r20, 0x96	; 150
    215c:	50 e4       	ldi	r21, 0x40	; 64
    215e:	c7 01       	movw	r24, r14
    2160:	b6 01       	movw	r22, r12
    2162:	0e 94 8d 18 	call	0x311a	; 0x311a <__addsf3>
    2166:	3f c0       	rjmp	.+126    	; 0x21e6 <sinf+0x1a0>
    2168:	24 ee       	ldi	r18, 0xE4	; 228
    216a:	3b ec       	ldi	r19, 0xCB	; 203
    216c:	46 e9       	ldi	r20, 0x96	; 150
    216e:	50 e4       	ldi	r21, 0x40	; 64
    2170:	c7 01       	movw	r24, r14
    2172:	b6 01       	movw	r22, r12
    2174:	0e 94 8c 18 	call	0x3118	; 0x3118 <__subsf3>
    2178:	3d c0       	rjmp	.+122    	; 0x21f4 <sinf+0x1ae>
    217a:	45 2b       	or	r20, r21
    217c:	49 f0       	breq	.+18     	; 0x2190 <sinf+0x14a>
    217e:	2b ed       	ldi	r18, 0xDB	; 219
    2180:	3f e0       	ldi	r19, 0x0F	; 15
    2182:	49 ec       	ldi	r20, 0xC9	; 201
    2184:	50 e4       	ldi	r21, 0x40	; 64
    2186:	c7 01       	movw	r24, r14
    2188:	b6 01       	movw	r22, r12
    218a:	0e 94 8d 18 	call	0x311a	; 0x311a <__addsf3>
    218e:	2f c0       	rjmp	.+94     	; 0x21ee <sinf+0x1a8>
    2190:	2b ed       	ldi	r18, 0xDB	; 219
    2192:	3f e0       	ldi	r19, 0x0F	; 15
    2194:	49 ec       	ldi	r20, 0xC9	; 201
    2196:	50 e4       	ldi	r21, 0x40	; 64
    2198:	c7 01       	movw	r24, r14
    219a:	b6 01       	movw	r22, r12
    219c:	0e 94 8c 18 	call	0x3118	; 0x3118 <__subsf3>
    21a0:	26 c0       	rjmp	.+76     	; 0x21ee <sinf+0x1a8>
    21a2:	00 97       	sbiw	r24, 0x00	; 0
    21a4:	a0 48       	sbci	r26, 0x80	; 128
    21a6:	bf 47       	sbci	r27, 0x7F	; 127
    21a8:	38 f0       	brcs	.+14     	; 0x21b8 <sinf+0x172>
    21aa:	a7 01       	movw	r20, r14
    21ac:	96 01       	movw	r18, r12
    21ae:	c7 01       	movw	r24, r14
    21b0:	b6 01       	movw	r22, r12
    21b2:	0e 94 8c 18 	call	0x3118	; 0x3118 <__subsf3>
    21b6:	21 c0       	rjmp	.+66     	; 0x21fa <sinf+0x1b4>
    21b8:	ae 01       	movw	r20, r28
    21ba:	4f 5f       	subi	r20, 0xFF	; 255
    21bc:	5f 4f       	sbci	r21, 0xFF	; 255
    21be:	c7 01       	movw	r24, r14
    21c0:	b6 01       	movw	r22, r12
    21c2:	0e 94 08 11 	call	0x2210	; 0x2210 <__rem_pio2f>
    21c6:	9c 01       	movw	r18, r24
    21c8:	23 70       	andi	r18, 0x03	; 3
    21ca:	33 27       	eor	r19, r19
    21cc:	69 81       	ldd	r22, Y+1	; 0x01
    21ce:	7a 81       	ldd	r23, Y+2	; 0x02
    21d0:	8b 81       	ldd	r24, Y+3	; 0x03
    21d2:	9c 81       	ldd	r25, Y+4	; 0x04
    21d4:	21 30       	cpi	r18, 0x01	; 1
    21d6:	31 05       	cpc	r19, r1
    21d8:	31 f0       	breq	.+12     	; 0x21e6 <sinf+0x1a0>
    21da:	22 30       	cpi	r18, 0x02	; 2
    21dc:	31 05       	cpc	r19, r1
    21de:	31 f0       	breq	.+12     	; 0x21ec <sinf+0x1a6>
    21e0:	23 2b       	or	r18, r19
    21e2:	41 f4       	brne	.+16     	; 0x21f4 <sinf+0x1ae>
    21e4:	04 c0       	rjmp	.+8      	; 0x21ee <sinf+0x1a8>
    21e6:	0e 94 9e 14 	call	0x293c	; 0x293c <__cosdf>
    21ea:	07 c0       	rjmp	.+14     	; 0x21fa <sinf+0x1b4>
    21ec:	90 58       	subi	r25, 0x80	; 128
    21ee:	0e 94 25 14 	call	0x284a	; 0x284a <__sindf>
    21f2:	03 c0       	rjmp	.+6      	; 0x21fa <sinf+0x1b4>
    21f4:	0e 94 9e 14 	call	0x293c	; 0x293c <__cosdf>
    21f8:	90 58       	subi	r25, 0x80	; 128
    21fa:	0f 90       	pop	r0
    21fc:	0f 90       	pop	r0
    21fe:	0f 90       	pop	r0
    2200:	0f 90       	pop	r0
    2202:	df 91       	pop	r29
    2204:	cf 91       	pop	r28
    2206:	ff 90       	pop	r15
    2208:	ef 90       	pop	r14
    220a:	df 90       	pop	r13
    220c:	cf 90       	pop	r12
    220e:	08 95       	ret

Disassembly of section .text.__cosdf:

0000293c <__cosdf>:
    293c:	4f 92       	push	r4
    293e:	5f 92       	push	r5
    2940:	6f 92       	push	r6
    2942:	7f 92       	push	r7
    2944:	8f 92       	push	r8
    2946:	9f 92       	push	r9
    2948:	af 92       	push	r10
    294a:	bf 92       	push	r11
    294c:	cf 92       	push	r12
    294e:	df 92       	push	r13
    2950:	ef 92       	push	r14
    2952:	ff 92       	push	r15
    2954:	cf 93       	push	r28
    2956:	df 93       	push	r29
    2958:	00 d0       	rcall	.+0      	; 0x295a <__cosdf+0x1e>
    295a:	00 d0       	rcall	.+0      	; 0x295c <__cosdf+0x20>
    295c:	cd b7       	in	r28, 0x3d	; 61
    295e:	de b7       	in	r29, 0x3e	; 62
    2960:	9b 01       	movw	r18, r22
    2962:	ac 01       	movw	r20, r24
    2964:	0e 94 c9 18 	call	0x3192	; 0x3192 <__mulsf3>
    2968:	6b 01       	movw	r12, r22
    296a:	7c 01       	movw	r14, r24
    296c:	9b 01       	movw	r18, r22
    296e:	ac 01       	movw	r20, r24
    2970:	0e 94 c9 18 	call	0x3192	; 0x3192 <__mulsf3>
    2974:	2b 01       	movw	r4, r22
    2976:	3c 01       	movw	r6, r24
    2978:	20 e0       	ldi	r18, 0x00	; 0
    297a:	30 e0       	ldi	r19, 0x00	; 0
    297c:	40 e0       	ldi	r20, 0x00	; 0
    297e:	5f eb       	ldi	r21, 0xBF	; 191
    2980:	c7 01       	movw	r24, r14
    2982:	b6 01       	movw	r22, r12
    2984:	0e 94 c9 18 	call	0x3192	; 0x3192 <__mulsf3>
    2988:	20 e0       	ldi	r18, 0x00	; 0
    298a:	30 e0       	ldi	r19, 0x00	; 0
    298c:	40 e8       	ldi	r20, 0x80	; 128
    298e:	5f e3       	ldi	r21, 0x3F	; 63
    2990:	0e 94 8d 18 	call	0x311a	; 0x311a <__addsf3>
    2994:	4b 01       	movw	r8, r22
    2996:	5c 01       	movw	r10, r24
    2998:	2f e9       	ldi	r18, 0x9F	; 159
    299a:	3a ea       	ldi	r19, 0xAA	; 170
    299c:	4a e2       	ldi	r20, 0x2A	; 42
    299e:	5d e3       	ldi	r21, 0x3D	; 61
    29a0:	c3 01       	movw	r24, r6
    29a2:	b2 01       	movw	r22, r4
    29a4:	0e 94 c9 18 	call	0x3192	; 0x3192 <__mulsf3>
    29a8:	9b 01       	movw	r18, r22
    29aa:	ac 01       	movw	r20, r24
    29ac:	c5 01       	movw	r24, r10
    29ae:	b4 01       	movw	r22, r8
    29b0:	0e 94 8d 18 	call	0x311a	; 0x311a <__addsf3>
    29b4:	4b 01       	movw	r8, r22
    29b6:	5c 01       	movw	r10, r24
    29b8:	27 e1       	ldi	r18, 0x17	; 23
    29ba:	3a e9       	ldi	r19, 0x9A	; 154
    29bc:	4c ec       	ldi	r20, 0xCC	; 204
    29be:	57 e3       	ldi	r21, 0x37	; 55
    29c0:	c7 01       	movw	r24, r14
    29c2:	b6 01       	movw	r22, r12
    29c4:	0e 94 c9 18 	call	0x3192	; 0x3192 <__mulsf3>
    29c8:	2f e3       	ldi	r18, 0x3F	; 63
    29ca:	34 e0       	ldi	r19, 0x04	; 4
    29cc:	46 eb       	ldi	r20, 0xB6	; 182
    29ce:	5a e3       	ldi	r21, 0x3A	; 58
    29d0:	0e 94 8c 18 	call	0x3118	; 0x3118 <__subsf3>
    29d4:	69 83       	std	Y+1, r22	; 0x01
    29d6:	7a 83       	std	Y+2, r23	; 0x02
    29d8:	8b 83       	std	Y+3, r24	; 0x03
    29da:	9c 83       	std	Y+4, r25	; 0x04
    29dc:	a3 01       	movw	r20, r6
    29de:	92 01       	movw	r18, r4
    29e0:	c7 01       	movw	r24, r14
    29e2:	b6 01       	movw	r22, r12
    29e4:	0e 94 c9 18 	call	0x3192	; 0x3192 <__mulsf3>
    29e8:	9b 01       	movw	r18, r22
    29ea:	ac 01       	movw	r20, r24
    29ec:	69 81       	ldd	r22, Y+1	; 0x01
    29ee:	7a 81       	ldd	r23, Y+2	; 0x02
    29f0:	8b 81       	ldd	r24, Y+3	; 0x03
    29f2:	9c 81       	ldd	r25, Y+4	; 0x04
    29f4:	0e 94 c9 18 	call	0x3192	; 0x3192 <__mulsf3>
    29f8:	9b 01       	movw	r18, r22
    29fa:	ac 01       	movw	r20, r24
    29fc:	c5 01       	movw	r24, r10
    29fe:	b4 01       	movw	r22, r8
    2a00:	0e 94 8d 18 	call	0x311a	; 0x311a <__addsf3>
    2a04:	0f 90       	pop	r0
    2a06:	0f 90       	pop	r0
    2a08:	0f 90       	pop	r0
    2a0a:	0f 90       	pop	r0
    2a0c:	df 91       	pop	r29
    2a0e:	cf 91       	pop	r28
    2a10:	ff 90       	pop	r15
    2a12:	ef 90       	pop	r14
    2a14:	df 90       	pop	r13
    2a16:	cf 90       	pop	r12
    2a18:	bf 90       	pop	r11
    2a1a:	af 90       	pop	r10
    2a1c:	9f 90       	pop	r9
    2a1e:	8f 90       	pop	r8
    2a20:	7f 90       	pop	r7
    2a22:	6f 90       	pop	r6
    2a24:	5f 90       	pop	r5
    2a26:	4f 90       	pop	r4
    2a28:	08 95       	ret

Disassembly of section .text.__rem_pio2f:

00002210 <__rem_pio2f>:
    2210:	4f 92       	push	r4
    2212:	5f 92       	push	r5
    2214:	6f 92       	push	r6
    2216:	7f 92       	push	r7
    2218:	af 92       	push	r10
    221a:	bf 92       	push	r11
    221c:	cf 92       	push	r12
    221e:	df 92       	push	r13
    2220:	ef 92       	push	r14
    2222:	ff 92       	push	r15
    2224:	0f 93       	push	r16
    2226:	1f 93       	push	r17
    2228:	cf 93       	push	r28
    222a:	df 93       	push	r29
    222c:	cd b7       	in	r28, 0x3d	; 61
    222e:	de b7       	in	r29, 0x3e	; 62
    2230:	2c 97       	sbiw	r28, 0x0c	; 12
    2232:	0f b6       	in	r0, 0x3f	; 63
    2234:	f8 94       	cli
    2236:	de bf       	out	0x3e, r29	; 62
    2238:	0f be       	out	0x3f, r0	; 63
    223a:	cd bf       	out	0x3d, r28	; 61
    223c:	2b 01       	movw	r4, r22
    223e:	3c 01       	movw	r6, r24
    2240:	5a 01       	movw	r10, r20
    2242:	dc 01       	movw	r26, r24
    2244:	cb 01       	movw	r24, r22
    2246:	bf 77       	andi	r27, 0x7F	; 127
    2248:	8b 3d       	cpi	r24, 0xDB	; 219
    224a:	2f e0       	ldi	r18, 0x0F	; 15
    224c:	92 07       	cpc	r25, r18
    224e:	29 ec       	ldi	r18, 0xC9	; 201
    2250:	a2 07       	cpc	r26, r18
    2252:	2d e4       	ldi	r18, 0x4D	; 77
    2254:	b2 07       	cpc	r27, r18
    2256:	08 f0       	brcs	.+2      	; 0x225a <__rem_pio2f+0x4a>
    2258:	42 c0       	rjmp	.+132    	; 0x22de <__rem_pio2f+0xce>
    225a:	23 e8       	ldi	r18, 0x83	; 131
    225c:	39 ef       	ldi	r19, 0xF9	; 249
    225e:	42 e2       	ldi	r20, 0x22	; 34
    2260:	5f e3       	ldi	r21, 0x3F	; 63
    2262:	c3 01       	movw	r24, r6
    2264:	b2 01       	movw	r22, r4
    2266:	0e 94 c9 18 	call	0x3192	; 0x3192 <__mulsf3>
    226a:	20 e0       	ldi	r18, 0x00	; 0
    226c:	30 e0       	ldi	r19, 0x00	; 0
    226e:	40 e4       	ldi	r20, 0x40	; 64
    2270:	5b e4       	ldi	r21, 0x4B	; 75
    2272:	0e 94 8d 18 	call	0x311a	; 0x311a <__addsf3>
    2276:	20 e0       	ldi	r18, 0x00	; 0
    2278:	30 e0       	ldi	r19, 0x00	; 0
    227a:	40 e4       	ldi	r20, 0x40	; 64
    227c:	5b e4       	ldi	r21, 0x4B	; 75
    227e:	0e 94 8c 18 	call	0x3118	; 0x3118 <__subsf3>
    2282:	6b 01       	movw	r12, r22
    2284:	7c 01       	movw	r14, r24
    2286:	0e 94 93 18 	call	0x3126	; 0x3126 <__fixsfsi>
    228a:	69 87       	std	Y+9, r22	; 0x09
    228c:	7a 87       	std	Y+10, r23	; 0x0a
    228e:	8b 87       	std	Y+11, r24	; 0x0b
    2290:	9c 87       	std	Y+12, r25	; 0x0c
    2292:	2a ed       	ldi	r18, 0xDA	; 218
    2294:	3f e0       	ldi	r19, 0x0F	; 15
    2296:	49 ec       	ldi	r20, 0xC9	; 201
    2298:	5f e3       	ldi	r21, 0x3F	; 63
    229a:	c7 01       	movw	r24, r14
    229c:	b6 01       	movw	r22, r12
    229e:	0e 94 c9 18 	call	0x3192	; 0x3192 <__mulsf3>
    22a2:	9b 01       	movw	r18, r22
    22a4:	ac 01       	movw	r20, r24
    22a6:	c3 01       	movw	r24, r6
    22a8:	b2 01       	movw	r22, r4
    22aa:	0e 94 8c 18 	call	0x3118	; 0x3118 <__subsf3>
    22ae:	2b 01       	movw	r4, r22
    22b0:	3c 01       	movw	r6, r24
    22b2:	23 ea       	ldi	r18, 0xA3	; 163
    22b4:	35 e8       	ldi	r19, 0x85	; 133
    22b6:	48 e8       	ldi	r20, 0x88	; 136
    22b8:	52 e3       	ldi	r21, 0x32	; 50
    22ba:	c7 01       	movw	r24, r14
    22bc:	b6 01       	movw	r22, r12
    22be:	0e 94 c9 18 	call	0x3192	; 0x3192 <__mulsf3>
    22c2:	9b 01       	movw	r18, r22
    22c4:	ac 01       	movw	r20, r24
    22c6:	c3 01       	movw	r24, r6
    22c8:	b2 01       	movw	r22, r4
    22ca:	0e 94 8c 18 	call	0x3118	; 0x3118 <__subsf3>
    22ce:	f5 01       	movw	r30, r10
    22d0:	60 83       	st	Z, r22
    22d2:	71 83       	std	Z+1, r23	; 0x01
    22d4:	82 83       	std	Z+2, r24	; 0x02
    22d6:	93 83       	std	Z+3, r25	; 0x03
    22d8:	89 85       	ldd	r24, Y+9	; 0x09
    22da:	9a 85       	ldd	r25, Y+10	; 0x0a
    22dc:	52 c0       	rjmp	.+164    	; 0x2382 <__rem_pio2f+0x172>
    22de:	00 97       	sbiw	r24, 0x00	; 0
    22e0:	f0 e8       	ldi	r31, 0x80	; 128
    22e2:	af 07       	cpc	r26, r31
    22e4:	ff e7       	ldi	r31, 0x7F	; 127
    22e6:	bf 07       	cpc	r27, r31
    22e8:	70 f0       	brcs	.+28     	; 0x2306 <__rem_pio2f+0xf6>
    22ea:	a3 01       	movw	r20, r6
    22ec:	92 01       	movw	r18, r4
    22ee:	c3 01       	movw	r24, r6
    22f0:	b2 01       	movw	r22, r4
    22f2:	0e 94 8c 18 	call	0x3118	; 0x3118 <__subsf3>
    22f6:	f5 01       	movw	r30, r10
    22f8:	60 83       	st	Z, r22
    22fa:	71 83       	std	Z+1, r23	; 0x01
    22fc:	82 83       	std	Z+2, r24	; 0x02
    22fe:	93 83       	std	Z+3, r25	; 0x03
    2300:	80 e0       	ldi	r24, 0x00	; 0
    2302:	90 e0       	ldi	r25, 0x00	; 0
    2304:	3e c0       	rjmp	.+124    	; 0x2382 <__rem_pio2f+0x172>
    2306:	ac 01       	movw	r20, r24
    2308:	bd 01       	movw	r22, r26
    230a:	27 e1       	ldi	r18, 0x17	; 23
    230c:	76 95       	lsr	r23
    230e:	67 95       	ror	r22
    2310:	57 95       	ror	r21
    2312:	47 95       	ror	r20
    2314:	2a 95       	dec	r18
    2316:	d1 f7       	brne	.-12     	; 0x230c <__rem_pio2f+0xfc>
    2318:	46 59       	subi	r20, 0x96	; 150
    231a:	51 09       	sbc	r21, r1
    231c:	61 09       	sbc	r22, r1
    231e:	71 09       	sbc	r23, r1
    2320:	6a 01       	movw	r12, r20
    2322:	7b 01       	movw	r14, r22
    2324:	37 e1       	ldi	r19, 0x17	; 23
    2326:	cc 0c       	add	r12, r12
    2328:	dd 1c       	adc	r13, r13
    232a:	ee 1c       	adc	r14, r14
    232c:	ff 1c       	adc	r15, r15
    232e:	3a 95       	dec	r19
    2330:	d1 f7       	brne	.-12     	; 0x2326 <__rem_pio2f+0x116>
    2332:	8c 19       	sub	r24, r12
    2334:	9d 09       	sbc	r25, r13
    2336:	ae 09       	sbc	r26, r14
    2338:	bf 09       	sbc	r27, r15
    233a:	8d 83       	std	Y+5, r24	; 0x05
    233c:	9e 83       	std	Y+6, r25	; 0x06
    233e:	af 83       	std	Y+7, r26	; 0x07
    2340:	b8 87       	std	Y+8, r27	; 0x08
    2342:	00 e0       	ldi	r16, 0x00	; 0
    2344:	10 e0       	ldi	r17, 0x00	; 0
    2346:	21 e0       	ldi	r18, 0x01	; 1
    2348:	30 e0       	ldi	r19, 0x00	; 0
    234a:	be 01       	movw	r22, r28
    234c:	6f 5f       	subi	r22, 0xFF	; 255
    234e:	7f 4f       	sbci	r23, 0xFF	; 255
    2350:	ce 01       	movw	r24, r28
    2352:	05 96       	adiw	r24, 0x05	; 5
    2354:	0e 94 70 02 	call	0x4e0	; 0x4e0 <__rem_pio2_large>
    2358:	49 81       	ldd	r20, Y+1	; 0x01
    235a:	5a 81       	ldd	r21, Y+2	; 0x02
    235c:	6b 81       	ldd	r22, Y+3	; 0x03
    235e:	7c 81       	ldd	r23, Y+4	; 0x04
    2360:	77 fe       	sbrs	r7, 7
    2362:	0a c0       	rjmp	.+20     	; 0x2378 <__rem_pio2f+0x168>
    2364:	70 58       	subi	r23, 0x80	; 128
    2366:	f5 01       	movw	r30, r10
    2368:	40 83       	st	Z, r20
    236a:	51 83       	std	Z+1, r21	; 0x01
    236c:	62 83       	std	Z+2, r22	; 0x02
    236e:	73 83       	std	Z+3, r23	; 0x03
    2370:	91 95       	neg	r25
    2372:	81 95       	neg	r24
    2374:	91 09       	sbc	r25, r1
    2376:	05 c0       	rjmp	.+10     	; 0x2382 <__rem_pio2f+0x172>
    2378:	f5 01       	movw	r30, r10
    237a:	40 83       	st	Z, r20
    237c:	51 83       	std	Z+1, r21	; 0x01
    237e:	62 83       	std	Z+2, r22	; 0x02
    2380:	73 83       	std	Z+3, r23	; 0x03
    2382:	2c 96       	adiw	r28, 0x0c	; 12
    2384:	0f b6       	in	r0, 0x3f	; 63
    2386:	f8 94       	cli
    2388:	de bf       	out	0x3e, r29	; 62
    238a:	0f be       	out	0x3f, r0	; 63
    238c:	cd bf       	out	0x3d, r28	; 61
    238e:	df 91       	pop	r29
    2390:	cf 91       	pop	r28
    2392:	1f 91       	pop	r17
    2394:	0f 91       	pop	r16
    2396:	ff 90       	pop	r15
    2398:	ef 90       	pop	r14
    239a:	df 90       	pop	r13
    239c:	cf 90       	pop	r12
    239e:	bf 90       	pop	r11
    23a0:	af 90       	pop	r10
    23a2:	7f 90       	pop	r7
    23a4:	6f 90       	pop	r6
    23a6:	5f 90       	pop	r5
    23a8:	4f 90       	pop	r4
    23aa:	08 95       	ret

Disassembly of section .text.__sindf:

0000284a <__sindf>:
    284a:	4f 92       	push	r4
    284c:	5f 92       	push	r5
    284e:	6f 92       	push	r6
    2850:	7f 92       	push	r7
    2852:	8f 92       	push	r8
    2854:	9f 92       	push	r9
    2856:	af 92       	push	r10
    2858:	bf 92       	push	r11
    285a:	cf 92       	push	r12
    285c:	df 92       	push	r13
    285e:	ef 92       	push	r14
    2860:	ff 92       	push	r15
    2862:	cf 93       	push	r28
    2864:	df 93       	push	r29
    2866:	00 d0       	rcall	.+0      	; 0x2868 <__sindf+0x1e>
    2868:	00 d0       	rcall	.+0      	; 0x286a <__sindf+0x20>
    286a:	cd b7       	in	r28, 0x3d	; 61
    286c:	de b7       	in	r29, 0x3e	; 62
    286e:	4b 01       	movw	r8, r22
    2870:	5c 01       	movw	r10, r24
    2872:	9b 01       	movw	r18, r22
    2874:	ac 01       	movw	r20, r24
    2876:	0e 94 c9 18 	call	0x3192	; 0x3192 <__mulsf3>
    287a:	6b 01       	movw	r12, r22
    287c:	7c 01       	movw	r14, r24
    287e:	9b 01       	movw	r18, r22
    2880:	ac 01       	movw	r20, r24
    2882:	c5 01       	movw	r24, r10
    2884:	b4 01       	movw	r22, r8
    2886:	0e 94 c9 18 	call	0x3192	; 0x3192 <__mulsf3>
    288a:	69 83       	std	Y+1, r22	; 0x01
    288c:	7a 83       	std	Y+2, r23	; 0x02
    288e:	8b 83       	std	Y+3, r24	; 0x03
    2890:	9c 83       	std	Y+4, r25	; 0x04
    2892:	2c e3       	ldi	r18, 0x3C	; 60
    2894:	3c e6       	ldi	r19, 0x6C	; 108
    2896:	46 e3       	ldi	r20, 0x36	; 54
    2898:	56 e3       	ldi	r21, 0x36	; 54
    289a:	c7 01       	movw	r24, r14
    289c:	b6 01       	movw	r22, r12
    289e:	0e 94 c9 18 	call	0x3192	; 0x3192 <__mulsf3>
    28a2:	2f ec       	ldi	r18, 0xCF	; 207
    28a4:	37 e0       	ldi	r19, 0x07	; 7
    28a6:	40 e5       	ldi	r20, 0x50	; 80
    28a8:	59 e3       	ldi	r21, 0x39	; 57
    28aa:	0e 94 8c 18 	call	0x3118	; 0x3118 <__subsf3>
    28ae:	2b 01       	movw	r4, r22
    28b0:	3c 01       	movw	r6, r24
    28b2:	a7 01       	movw	r20, r14
    28b4:	96 01       	movw	r18, r12
    28b6:	c7 01       	movw	r24, r14
    28b8:	b6 01       	movw	r22, r12
    28ba:	0e 94 c9 18 	call	0x3192	; 0x3192 <__mulsf3>
    28be:	29 81       	ldd	r18, Y+1	; 0x01
    28c0:	3a 81       	ldd	r19, Y+2	; 0x02
    28c2:	4b 81       	ldd	r20, Y+3	; 0x03
    28c4:	5c 81       	ldd	r21, Y+4	; 0x04
    28c6:	0e 94 c9 18 	call	0x3192	; 0x3192 <__mulsf3>
    28ca:	9b 01       	movw	r18, r22
    28cc:	ac 01       	movw	r20, r24
    28ce:	c3 01       	movw	r24, r6
    28d0:	b2 01       	movw	r22, r4
    28d2:	0e 94 c9 18 	call	0x3192	; 0x3192 <__mulsf3>
    28d6:	2b 01       	movw	r4, r22
    28d8:	3c 01       	movw	r6, r24
    28da:	24 e8       	ldi	r18, 0x84	; 132
    28dc:	38 e8       	ldi	r19, 0x88	; 136
    28de:	48 e0       	ldi	r20, 0x08	; 8
    28e0:	5c e3       	ldi	r21, 0x3C	; 60
    28e2:	c7 01       	movw	r24, r14
    28e4:	b6 01       	movw	r22, r12
    28e6:	0e 94 c9 18 	call	0x3192	; 0x3192 <__mulsf3>
    28ea:	2b ea       	ldi	r18, 0xAB	; 171
    28ec:	3a ea       	ldi	r19, 0xAA	; 170
    28ee:	4a e2       	ldi	r20, 0x2A	; 42
    28f0:	5e e3       	ldi	r21, 0x3E	; 62
    28f2:	0e 94 8c 18 	call	0x3118	; 0x3118 <__subsf3>
    28f6:	29 81       	ldd	r18, Y+1	; 0x01
    28f8:	3a 81       	ldd	r19, Y+2	; 0x02
    28fa:	4b 81       	ldd	r20, Y+3	; 0x03
    28fc:	5c 81       	ldd	r21, Y+4	; 0x04
    28fe:	0e 94 c9 18 	call	0x3192	; 0x3192 <__mulsf3>
    2902:	a5 01       	movw	r20, r10
    2904:	94 01       	movw	r18, r8
    2906:	0e 94 8d 18 	call	0x311a	; 0x311a <__addsf3>
    290a:	9b 01       	movw	r18, r22
    290c:	ac 01       	movw	r20, r24
    290e:	c3 01       	movw	r24, r6
    2910:	b2 01       	movw	r22, r4
    2912:	0e 94 8d 18 	call	0x311a	; 0x311a <__addsf3>
    2916:	0f 90       	pop	r0
    2918:	0f 90       	pop	r0
    291a:	0f 90       	pop	r0
    291c:	0f 90       	pop	r0
    291e:	df 91       	pop	r29
    2920:	cf 91       	pop	r28
    2922:	ff 90       	pop	r15
    2924:	ef 90       	pop	r14
    2926:	df 90       	pop	r13
    2928:	cf 90       	pop	r12
    292a:	bf 90       	pop	r11
    292c:	af 90       	pop	r10
    292e:	9f 90       	pop	r9
    2930:	8f 90       	pop	r8
    2932:	7f 90       	pop	r7
    2934:	6f 90       	pop	r6
    2936:	5f 90       	pop	r5
    2938:	4f 90       	pop	r4
    293a:	08 95       	ret

Disassembly of section .text.__rem_pio2_large:

000004e0 <__rem_pio2_large>:
     4e0:	a1 e7       	ldi	r26, 0x71	; 113
     4e2:	b1 e0       	ldi	r27, 0x01	; 1
     4e4:	e6 e7       	ldi	r30, 0x76	; 118
     4e6:	f2 e0       	ldi	r31, 0x02	; 2
     4e8:	0c 94 9c 17 	jmp	0x2f38	; 0x2f38 <__prologue_saves__>
     4ec:	cb 59       	subi	r28, 0x9B	; 155
     4ee:	de 4f       	sbci	r29, 0xFE	; 254
     4f0:	88 83       	st	Y, r24
     4f2:	c5 56       	subi	r28, 0x65	; 101
     4f4:	d1 40       	sbci	r29, 0x01	; 1
     4f6:	c7 59       	subi	r28, 0x97	; 151
     4f8:	de 4f       	sbci	r29, 0xFE	; 254
     4fa:	98 83       	st	Y, r25
     4fc:	c9 56       	subi	r28, 0x69	; 105
     4fe:	d1 40       	sbci	r29, 0x01	; 1
     500:	c3 5a       	subi	r28, 0xA3	; 163
     502:	de 4f       	sbci	r29, 0xFE	; 254
     504:	79 83       	std	Y+1, r23	; 0x01
     506:	68 83       	st	Y, r22
     508:	cd 55       	subi	r28, 0x5D	; 93
     50a:	d1 40       	sbci	r29, 0x01	; 1
     50c:	7a 01       	movw	r14, r20
     50e:	c7 5b       	subi	r28, 0xB7	; 183
     510:	de 4f       	sbci	r29, 0xFE	; 254
     512:	39 83       	std	Y+1, r19	; 0x01
     514:	28 83       	st	Y, r18
     516:	c9 54       	subi	r28, 0x49	; 73
     518:	d1 40       	sbci	r29, 0x01	; 1
     51a:	cd 59       	subi	r28, 0x9D	; 157
     51c:	de 4f       	sbci	r29, 0xFE	; 254
     51e:	19 83       	std	Y+1, r17	; 0x01
     520:	08 83       	st	Y, r16
     522:	c3 56       	subi	r28, 0x63	; 99
     524:	d1 40       	sbci	r29, 0x01	; 1
     526:	c8 01       	movw	r24, r16
     528:	88 0f       	add	r24, r24
     52a:	99 1f       	adc	r25, r25
     52c:	09 2e       	mov	r0, r25
     52e:	00 0c       	add	r0, r0
     530:	aa 0b       	sbc	r26, r26
     532:	89 52       	subi	r24, 0x29	; 41
     534:	9b 4f       	sbci	r25, 0xFB	; 251
     536:	af 4f       	sbci	r26, 0xFF	; 255
     538:	fc 01       	movw	r30, r24
     53a:	5a 2f       	mov	r21, r26
     53c:	0e 94 76 18 	call	0x30ec	; 0x30ec <__xload_2>
     540:	4b 01       	movw	r8, r22
     542:	77 0f       	add	r23, r23
     544:	aa 08       	sbc	r10, r10
     546:	bb 08       	sbc	r11, r11
     548:	cb 5a       	subi	r28, 0xAB	; 171
     54a:	de 4f       	sbci	r29, 0xFE	; 254
     54c:	88 82       	st	Y, r8
     54e:	99 82       	std	Y+1, r9	; 0x01
     550:	aa 82       	std	Y+2, r10	; 0x02
     552:	bb 82       	std	Y+3, r11	; 0x03
     554:	c5 55       	subi	r28, 0x55	; 85
     556:	d1 40       	sbci	r29, 0x01	; 1
     558:	c9 01       	movw	r24, r18
     55a:	01 97       	sbiw	r24, 0x01	; 1
     55c:	5c 01       	movw	r10, r24
     55e:	99 0f       	add	r25, r25
     560:	cc 08       	sbc	r12, r12
     562:	dd 08       	sbc	r13, r13
     564:	cf 5a       	subi	r28, 0xAF	; 175
     566:	de 4f       	sbci	r29, 0xFE	; 254
     568:	a8 82       	st	Y, r10
     56a:	b9 82       	std	Y+1, r11	; 0x01
     56c:	ca 82       	std	Y+2, r12	; 0x02
     56e:	db 82       	std	Y+3, r13	; 0x03
     570:	c1 55       	subi	r28, 0x51	; 81
     572:	d1 40       	sbci	r29, 0x01	; 1
     574:	c7 01       	movw	r24, r14
     576:	03 97       	sbiw	r24, 0x03	; 3
     578:	68 e1       	ldi	r22, 0x18	; 24
     57a:	70 e0       	ldi	r23, 0x00	; 0
     57c:	0e 94 e9 17 	call	0x2fd2	; 0x2fd2 <__divmodhi4>
     580:	77 fd       	sbrc	r23, 7
     582:	0d c0       	rjmp	.+26     	; 0x59e <__rem_pio2_large+0xbe>
     584:	4b 01       	movw	r8, r22
     586:	77 0f       	add	r23, r23
     588:	aa 08       	sbc	r10, r10
     58a:	bb 08       	sbc	r11, r11
     58c:	c7 5a       	subi	r28, 0xA7	; 167
     58e:	de 4f       	sbci	r29, 0xFE	; 254
     590:	88 82       	st	Y, r8
     592:	99 82       	std	Y+1, r9	; 0x01
     594:	aa 82       	std	Y+2, r10	; 0x02
     596:	bb 82       	std	Y+3, r11	; 0x03
     598:	c9 55       	subi	r28, 0x59	; 89
     59a:	d1 40       	sbci	r29, 0x01	; 1
     59c:	08 c0       	rjmp	.+16     	; 0x5ae <__rem_pio2_large+0xce>
     59e:	c7 5a       	subi	r28, 0xA7	; 167
     5a0:	de 4f       	sbci	r29, 0xFE	; 254
     5a2:	18 82       	st	Y, r1
     5a4:	19 82       	std	Y+1, r1	; 0x01
     5a6:	1a 82       	std	Y+2, r1	; 0x02
     5a8:	1b 82       	std	Y+3, r1	; 0x03
     5aa:	c9 55       	subi	r28, 0x59	; 89
     5ac:	d1 40       	sbci	r29, 0x01	; 1
     5ae:	a8 ee       	ldi	r26, 0xE8	; 232
     5b0:	bf ef       	ldi	r27, 0xFF	; 255
     5b2:	c7 5a       	subi	r28, 0xA7	; 167
     5b4:	de 4f       	sbci	r29, 0xFE	; 254
     5b6:	28 81       	ld	r18, Y
     5b8:	39 81       	ldd	r19, Y+1	; 0x01
     5ba:	4a 81       	ldd	r20, Y+2	; 0x02
     5bc:	5b 81       	ldd	r21, Y+3	; 0x03
     5be:	c9 55       	subi	r28, 0x59	; 89
     5c0:	d1 40       	sbci	r29, 0x01	; 1
     5c2:	2f 5f       	subi	r18, 0xFF	; 255
     5c4:	3f 4f       	sbci	r19, 0xFF	; 255
     5c6:	4f 4f       	sbci	r20, 0xFF	; 255
     5c8:	5f 4f       	sbci	r21, 0xFF	; 255
     5ca:	0e 94 71 18 	call	0x30e2	; 0x30e2 <__mulohisi3>
     5ce:	87 01       	movw	r16, r14
     5d0:	ff 0c       	add	r15, r15
     5d2:	22 0b       	sbc	r18, r18
     5d4:	33 0b       	sbc	r19, r19
     5d6:	5b 01       	movw	r10, r22
     5d8:	6c 01       	movw	r12, r24
     5da:	a0 0e       	add	r10, r16
     5dc:	b1 1e       	adc	r11, r17
     5de:	c2 1e       	adc	r12, r18
     5e0:	d3 1e       	adc	r13, r19
     5e2:	cf 5b       	subi	r28, 0xBF	; 191
     5e4:	de 4f       	sbci	r29, 0xFE	; 254
     5e6:	a8 82       	st	Y, r10
     5e8:	b9 82       	std	Y+1, r11	; 0x01
     5ea:	ca 82       	std	Y+2, r12	; 0x02
     5ec:	db 82       	std	Y+3, r13	; 0x03
     5ee:	c1 54       	subi	r28, 0x41	; 65
     5f0:	d1 40       	sbci	r29, 0x01	; 1
     5f2:	c7 5a       	subi	r28, 0xA7	; 167
     5f4:	de 4f       	sbci	r29, 0xFE	; 254
     5f6:	48 80       	ld	r4, Y
     5f8:	59 80       	ldd	r5, Y+1	; 0x01
     5fa:	6a 80       	ldd	r6, Y+2	; 0x02
     5fc:	7b 80       	ldd	r7, Y+3	; 0x03
     5fe:	c9 55       	subi	r28, 0x59	; 89
     600:	d1 40       	sbci	r29, 0x01	; 1
     602:	cf 5a       	subi	r28, 0xAF	; 175
     604:	de 4f       	sbci	r29, 0xFE	; 254
     606:	c8 80       	ld	r12, Y
     608:	d9 80       	ldd	r13, Y+1	; 0x01
     60a:	ea 80       	ldd	r14, Y+2	; 0x02
     60c:	fb 80       	ldd	r15, Y+3	; 0x03
     60e:	c1 55       	subi	r28, 0x51	; 81
     610:	d1 40       	sbci	r29, 0x01	; 1
     612:	4c 18       	sub	r4, r12
     614:	5d 08       	sbc	r5, r13
     616:	6e 08       	sbc	r6, r14
     618:	7f 08       	sbc	r7, r15
     61a:	cb 5a       	subi	r28, 0xAB	; 171
     61c:	de 4f       	sbci	r29, 0xFE	; 254
     61e:	88 80       	ld	r8, Y
     620:	99 80       	ldd	r9, Y+1	; 0x01
     622:	aa 80       	ldd	r10, Y+2	; 0x02
     624:	bb 80       	ldd	r11, Y+3	; 0x03
     626:	c5 55       	subi	r28, 0x55	; 85
     628:	d1 40       	sbci	r29, 0x01	; 1
     62a:	8c 0c       	add	r8, r12
     62c:	9d 1c       	adc	r9, r13
     62e:	ae 1c       	adc	r10, r14
     630:	bf 1c       	adc	r11, r15
     632:	cb 5b       	subi	r28, 0xBB	; 187
     634:	de 4f       	sbci	r29, 0xFE	; 254
     636:	88 82       	st	Y, r8
     638:	99 82       	std	Y+1, r9	; 0x01
     63a:	aa 82       	std	Y+2, r10	; 0x02
     63c:	bb 82       	std	Y+3, r11	; 0x03
     63e:	c5 54       	subi	r28, 0x45	; 69
     640:	d1 40       	sbci	r29, 0x01	; 1
     642:	8e 01       	movw	r16, r28
     644:	0f 55       	subi	r16, 0x5F	; 95
     646:	1f 4f       	sbci	r17, 0xFF	; 255
     648:	62 01       	movw	r12, r4
     64a:	cc 0c       	add	r12, r12
     64c:	dd 1c       	adc	r13, r13
     64e:	cc 0c       	add	r12, r12
     650:	dd 1c       	adc	r13, r13
     652:	c6 01       	movw	r24, r12
     654:	dd 0c       	add	r13, r13
     656:	aa 0b       	sbc	r26, r26
     658:	9c 01       	movw	r18, r24
     65a:	4a 2f       	mov	r20, r26
     65c:	21 55       	subi	r18, 0x51	; 81
     65e:	3c 4f       	sbci	r19, 0xFC	; 252
     660:	4f 4f       	sbci	r20, 0xFF	; 255
     662:	69 01       	movw	r12, r18
     664:	e4 2e       	mov	r14, r20
     666:	81 2c       	mov	r8, r1
     668:	91 2c       	mov	r9, r1
     66a:	54 01       	movw	r10, r8
     66c:	cb 5b       	subi	r28, 0xBB	; 187
     66e:	de 4f       	sbci	r29, 0xFE	; 254
     670:	28 81       	ld	r18, Y
     672:	39 81       	ldd	r19, Y+1	; 0x01
     674:	4a 81       	ldd	r20, Y+2	; 0x02
     676:	5b 81       	ldd	r21, Y+3	; 0x03
     678:	c5 54       	subi	r28, 0x45	; 69
     67a:	d1 40       	sbci	r29, 0x01	; 1
     67c:	28 15       	cp	r18, r8
     67e:	39 05       	cpc	r19, r9
     680:	4a 05       	cpc	r20, r10
     682:	5b 05       	cpc	r21, r11
     684:	14 f1       	brlt	.+68     	; 0x6ca <__rem_pio2_large+0x1ea>
     686:	d5 01       	movw	r26, r10
     688:	c4 01       	movw	r24, r8
     68a:	84 0d       	add	r24, r4
     68c:	95 1d       	adc	r25, r5
     68e:	a6 1d       	adc	r26, r6
     690:	b7 1d       	adc	r27, r7
     692:	b7 fd       	sbrc	r27, 7
     694:	07 c0       	rjmp	.+14     	; 0x6a4 <__rem_pio2_large+0x1c4>
     696:	f6 01       	movw	r30, r12
     698:	5e 2d       	mov	r21, r14
     69a:	0e 94 41 18 	call	0x3082	; 0x3082 <__xload_4>
     69e:	0e 94 92 16 	call	0x2d24	; 0x2d24 <__floatsisf>
     6a2:	03 c0       	rjmp	.+6      	; 0x6aa <__rem_pio2_large+0x1ca>
     6a4:	60 e0       	ldi	r22, 0x00	; 0
     6a6:	70 e0       	ldi	r23, 0x00	; 0
     6a8:	cb 01       	movw	r24, r22
     6aa:	d8 01       	movw	r26, r16
     6ac:	6d 93       	st	X+, r22
     6ae:	7d 93       	st	X+, r23
     6b0:	8d 93       	st	X+, r24
     6b2:	9d 93       	st	X+, r25
     6b4:	8d 01       	movw	r16, r26
     6b6:	bf ef       	ldi	r27, 0xFF	; 255
     6b8:	8b 1a       	sub	r8, r27
     6ba:	9b 0a       	sbc	r9, r27
     6bc:	ab 0a       	sbc	r10, r27
     6be:	bb 0a       	sbc	r11, r27
     6c0:	e4 e0       	ldi	r30, 0x04	; 4
     6c2:	ce 0e       	add	r12, r30
     6c4:	d1 1c       	adc	r13, r1
     6c6:	e1 1c       	adc	r14, r1
     6c8:	d1 cf       	rjmp	.-94     	; 0x66c <__rem_pio2_large+0x18c>
     6ca:	8e 01       	movw	r16, r28
     6cc:	0f 5f       	subi	r16, 0xFF	; 255
     6ce:	1f 4f       	sbci	r17, 0xFF	; 255
     6d0:	c3 5b       	subi	r28, 0xB3	; 179
     6d2:	de 4f       	sbci	r29, 0xFE	; 254
     6d4:	19 83       	std	Y+1, r17	; 0x01
     6d6:	08 83       	st	Y, r16
     6d8:	cd 54       	subi	r28, 0x4D	; 77
     6da:	d1 40       	sbci	r29, 0x01	; 1
     6dc:	c7 5b       	subi	r28, 0xB7	; 183
     6de:	de 4f       	sbci	r29, 0xFE	; 254
     6e0:	88 80       	ld	r8, Y
     6e2:	99 80       	ldd	r9, Y+1	; 0x01
     6e4:	c9 54       	subi	r28, 0x49	; 73
     6e6:	d1 40       	sbci	r29, 0x01	; 1
     6e8:	c4 01       	movw	r24, r8
     6ea:	99 0c       	add	r9, r9
     6ec:	aa 0b       	sbc	r26, r26
     6ee:	bb 0b       	sbc	r27, r27
     6f0:	01 97       	sbiw	r24, 0x01	; 1
     6f2:	a1 09       	sbc	r26, r1
     6f4:	b1 09       	sbc	r27, r1
     6f6:	5c 01       	movw	r10, r24
     6f8:	aa 0c       	add	r10, r10
     6fa:	bb 1c       	adc	r11, r11
     6fc:	aa 0c       	add	r10, r10
     6fe:	bb 1c       	adc	r11, r11
     700:	c1 5a       	subi	r28, 0xA1	; 161
     702:	de 4f       	sbci	r29, 0xFE	; 254
     704:	b9 82       	std	Y+1, r11	; 0x01
     706:	a8 82       	st	Y, r10
     708:	cf 55       	subi	r28, 0x5F	; 95
     70a:	d1 40       	sbci	r29, 0x01	; 1
     70c:	21 2c       	mov	r2, r1
     70e:	31 2c       	mov	r3, r1
     710:	41 2c       	mov	r4, r1
     712:	51 2c       	mov	r5, r1
     714:	32 01       	movw	r6, r4
     716:	cb 5a       	subi	r28, 0xAB	; 171
     718:	de 4f       	sbci	r29, 0xFE	; 254
     71a:	88 80       	ld	r8, Y
     71c:	99 80       	ldd	r9, Y+1	; 0x01
     71e:	aa 80       	ldd	r10, Y+2	; 0x02
     720:	bb 80       	ldd	r11, Y+3	; 0x03
     722:	c5 55       	subi	r28, 0x55	; 85
     724:	d1 40       	sbci	r29, 0x01	; 1
     726:	84 14       	cp	r8, r4
     728:	95 04       	cpc	r9, r5
     72a:	a6 04       	cpc	r10, r6
     72c:	b7 04       	cpc	r11, r7
     72e:	0c f4       	brge	.+2      	; 0x732 <__rem_pio2_large+0x252>
     730:	84 c0       	rjmp	.+264    	; 0x83a <__DATA_REGION_LENGTH__+0x3a>
     732:	cb 59       	subi	r28, 0x9B	; 155
     734:	de 4f       	sbci	r29, 0xFE	; 254
     736:	98 80       	ld	r9, Y
     738:	c5 56       	subi	r28, 0x65	; 101
     73a:	d1 40       	sbci	r29, 0x01	; 1
     73c:	cb 5b       	subi	r28, 0xBB	; 187
     73e:	de 4f       	sbci	r29, 0xFE	; 254
     740:	98 82       	st	Y, r9
     742:	c5 54       	subi	r28, 0x45	; 69
     744:	d1 40       	sbci	r29, 0x01	; 1
     746:	c7 59       	subi	r28, 0x97	; 151
     748:	de 4f       	sbci	r29, 0xFE	; 254
     74a:	a8 80       	ld	r10, Y
     74c:	c9 56       	subi	r28, 0x69	; 105
     74e:	d1 40       	sbci	r29, 0x01	; 1
     750:	ca 5b       	subi	r28, 0xBA	; 186
     752:	de 4f       	sbci	r29, 0xFE	; 254
     754:	a8 82       	st	Y, r10
     756:	c6 54       	subi	r28, 0x46	; 70
     758:	d1 40       	sbci	r29, 0x01	; 1
     75a:	c1 5a       	subi	r28, 0xA1	; 161
     75c:	de 4f       	sbci	r29, 0xFE	; 254
     75e:	c8 80       	ld	r12, Y
     760:	d9 80       	ldd	r13, Y+1	; 0x01
     762:	cf 55       	subi	r28, 0x5F	; 95
     764:	d1 40       	sbci	r29, 0x01	; 1
     766:	c2 0c       	add	r12, r2
     768:	d3 1c       	adc	r13, r3
     76a:	c9 59       	subi	r28, 0x99	; 153
     76c:	de 4f       	sbci	r29, 0xFE	; 254
     76e:	d9 82       	std	Y+1, r13	; 0x01
     770:	c8 82       	st	Y, r12
     772:	c7 56       	subi	r28, 0x67	; 103
     774:	d1 40       	sbci	r29, 0x01	; 1
     776:	00 e0       	ldi	r16, 0x00	; 0
     778:	10 e0       	ldi	r17, 0x00	; 0
     77a:	81 2c       	mov	r8, r1
     77c:	91 2c       	mov	r9, r1
     77e:	54 01       	movw	r10, r8
     780:	c1 2c       	mov	r12, r1
     782:	d1 2c       	mov	r13, r1
     784:	76 01       	movw	r14, r12
     786:	cf 5a       	subi	r28, 0xAF	; 175
     788:	de 4f       	sbci	r29, 0xFE	; 254
     78a:	28 81       	ld	r18, Y
     78c:	39 81       	ldd	r19, Y+1	; 0x01
     78e:	4a 81       	ldd	r20, Y+2	; 0x02
     790:	5b 81       	ldd	r21, Y+3	; 0x03
     792:	c1 55       	subi	r28, 0x51	; 81
     794:	d1 40       	sbci	r29, 0x01	; 1
     796:	2c 15       	cp	r18, r12
     798:	3d 05       	cpc	r19, r13
     79a:	4e 05       	cpc	r20, r14
     79c:	5f 05       	cpc	r21, r15
     79e:	a4 f1       	brlt	.+104    	; 0x808 <__DATA_REGION_LENGTH__+0x8>
     7a0:	c9 59       	subi	r28, 0x99	; 153
     7a2:	de 4f       	sbci	r29, 0xFE	; 254
     7a4:	e8 81       	ld	r30, Y
     7a6:	f9 81       	ldd	r31, Y+1	; 0x01
     7a8:	c7 56       	subi	r28, 0x67	; 103
     7aa:	d1 40       	sbci	r29, 0x01	; 1
     7ac:	e0 0f       	add	r30, r16
     7ae:	f1 1f       	adc	r31, r17
     7b0:	21 ea       	ldi	r18, 0xA1	; 161
     7b2:	30 e0       	ldi	r19, 0x00	; 0
     7b4:	2c 0f       	add	r18, r28
     7b6:	3d 1f       	adc	r19, r29
     7b8:	e2 0f       	add	r30, r18
     7ba:	f3 1f       	adc	r31, r19
     7bc:	cb 5b       	subi	r28, 0xBB	; 187
     7be:	de 4f       	sbci	r29, 0xFE	; 254
     7c0:	a8 81       	ld	r26, Y
     7c2:	b9 81       	ldd	r27, Y+1	; 0x01
     7c4:	c5 54       	subi	r28, 0x45	; 69
     7c6:	d1 40       	sbci	r29, 0x01	; 1
     7c8:	2d 91       	ld	r18, X+
     7ca:	3d 91       	ld	r19, X+
     7cc:	4d 91       	ld	r20, X+
     7ce:	5d 91       	ld	r21, X+
     7d0:	cb 5b       	subi	r28, 0xBB	; 187
     7d2:	de 4f       	sbci	r29, 0xFE	; 254
     7d4:	b9 83       	std	Y+1, r27	; 0x01
     7d6:	a8 83       	st	Y, r26
     7d8:	c5 54       	subi	r28, 0x45	; 69
     7da:	d1 40       	sbci	r29, 0x01	; 1
     7dc:	60 81       	ld	r22, Z
     7de:	71 81       	ldd	r23, Z+1	; 0x01
     7e0:	82 81       	ldd	r24, Z+2	; 0x02
     7e2:	93 81       	ldd	r25, Z+3	; 0x03
     7e4:	0e 94 c9 18 	call	0x3192	; 0x3192 <__mulsf3>
     7e8:	9b 01       	movw	r18, r22
     7ea:	ac 01       	movw	r20, r24
     7ec:	c5 01       	movw	r24, r10
     7ee:	b4 01       	movw	r22, r8
     7f0:	0e 94 8d 18 	call	0x311a	; 0x311a <__addsf3>
     7f4:	4b 01       	movw	r8, r22
     7f6:	5c 01       	movw	r10, r24
     7f8:	bf ef       	ldi	r27, 0xFF	; 255
     7fa:	cb 1a       	sub	r12, r27
     7fc:	db 0a       	sbc	r13, r27
     7fe:	eb 0a       	sbc	r14, r27
     800:	fb 0a       	sbc	r15, r27
     802:	04 50       	subi	r16, 0x04	; 4
     804:	11 09       	sbc	r17, r1
     806:	bf cf       	rjmp	.-130    	; 0x786 <__rem_pio2_large+0x2a6>
     808:	c3 5b       	subi	r28, 0xB3	; 179
     80a:	de 4f       	sbci	r29, 0xFE	; 254
     80c:	a8 81       	ld	r26, Y
     80e:	b9 81       	ldd	r27, Y+1	; 0x01
     810:	cd 54       	subi	r28, 0x4D	; 77
     812:	d1 40       	sbci	r29, 0x01	; 1
     814:	8d 92       	st	X+, r8
     816:	9d 92       	st	X+, r9
     818:	ad 92       	st	X+, r10
     81a:	bd 92       	st	X+, r11
     81c:	c3 5b       	subi	r28, 0xB3	; 179
     81e:	de 4f       	sbci	r29, 0xFE	; 254
     820:	b9 83       	std	Y+1, r27	; 0x01
     822:	a8 83       	st	Y, r26
     824:	cd 54       	subi	r28, 0x4D	; 77
     826:	d1 40       	sbci	r29, 0x01	; 1
     828:	bf ef       	ldi	r27, 0xFF	; 255
     82a:	4b 1a       	sub	r4, r27
     82c:	5b 0a       	sbc	r5, r27
     82e:	6b 0a       	sbc	r6, r27
     830:	7b 0a       	sbc	r7, r27
     832:	e4 e0       	ldi	r30, 0x04	; 4
     834:	2e 0e       	add	r2, r30
     836:	31 1c       	adc	r3, r1
     838:	6e cf       	rjmp	.-292    	; 0x716 <__rem_pio2_large+0x236>
     83a:	cb 5a       	subi	r28, 0xAB	; 171
     83c:	de 4f       	sbci	r29, 0xFE	; 254
     83e:	88 81       	ld	r24, Y
     840:	99 81       	ldd	r25, Y+1	; 0x01
     842:	aa 81       	ldd	r26, Y+2	; 0x02
     844:	bb 81       	ldd	r27, Y+3	; 0x03
     846:	c5 55       	subi	r28, 0x55	; 85
     848:	d1 40       	sbci	r29, 0x01	; 1
     84a:	01 97       	sbiw	r24, 0x01	; 1
     84c:	a1 09       	sbc	r26, r1
     84e:	b1 09       	sbc	r27, r1
     850:	7c 01       	movw	r14, r24
     852:	ee 0c       	add	r14, r14
     854:	ff 1c       	adc	r15, r15
     856:	ee 0c       	add	r14, r14
     858:	ff 1c       	adc	r15, r15
     85a:	c4 59       	subi	r28, 0x94	; 148
     85c:	de 4f       	sbci	r29, 0xFE	; 254
     85e:	f9 82       	std	Y+1, r15	; 0x01
     860:	e8 82       	st	Y, r14
     862:	cc 56       	subi	r28, 0x6C	; 108
     864:	d1 40       	sbci	r29, 0x01	; 1
     866:	cb 5a       	subi	r28, 0xAB	; 171
     868:	de 4f       	sbci	r29, 0xFE	; 254
     86a:	48 80       	ld	r4, Y
     86c:	59 80       	ldd	r5, Y+1	; 0x01
     86e:	6a 80       	ldd	r6, Y+2	; 0x02
     870:	7b 80       	ldd	r7, Y+3	; 0x03
     872:	c5 55       	subi	r28, 0x55	; 85
     874:	d1 40       	sbci	r29, 0x01	; 1
     876:	c7 5b       	subi	r28, 0xB7	; 183
     878:	de 4f       	sbci	r29, 0xFE	; 254
     87a:	88 81       	ld	r24, Y
     87c:	99 81       	ldd	r25, Y+1	; 0x01
     87e:	c9 54       	subi	r28, 0x49	; 73
     880:	d1 40       	sbci	r29, 0x01	; 1
     882:	01 97       	sbiw	r24, 0x01	; 1
     884:	4c 01       	movw	r8, r24
     886:	99 0f       	add	r25, r25
     888:	aa 08       	sbc	r10, r10
     88a:	bb 08       	sbc	r11, r11
     88c:	c2 59       	subi	r28, 0x92	; 146
     88e:	de 4f       	sbci	r29, 0xFE	; 254
     890:	88 82       	st	Y, r8
     892:	99 82       	std	Y+1, r9	; 0x01
     894:	aa 82       	std	Y+2, r10	; 0x02
     896:	bb 82       	std	Y+3, r11	; 0x03
     898:	ce 56       	subi	r28, 0x6E	; 110
     89a:	d1 40       	sbci	r29, 0x01	; 1
     89c:	52 01       	movw	r10, r4
     89e:	aa 0c       	add	r10, r10
     8a0:	bb 1c       	adc	r11, r11
     8a2:	aa 0c       	add	r10, r10
     8a4:	bb 1c       	adc	r11, r11
     8a6:	c3 5b       	subi	r28, 0xB3	; 179
     8a8:	de 4f       	sbci	r29, 0xFE	; 254
     8aa:	b9 82       	std	Y+1, r11	; 0x01
     8ac:	a8 82       	st	Y, r10
     8ae:	cd 54       	subi	r28, 0x4D	; 77
     8b0:	d1 40       	sbci	r29, 0x01	; 1
     8b2:	e1 e0       	ldi	r30, 0x01	; 1
     8b4:	f0 e0       	ldi	r31, 0x00	; 0
     8b6:	ec 0f       	add	r30, r28
     8b8:	fd 1f       	adc	r31, r29
     8ba:	ea 0d       	add	r30, r10
     8bc:	fb 1d       	adc	r31, r11
     8be:	c0 80       	ld	r12, Z
     8c0:	d1 80       	ldd	r13, Z+1	; 0x01
     8c2:	e2 80       	ldd	r14, Z+2	; 0x02
     8c4:	f3 80       	ldd	r15, Z+3	; 0x03
     8c6:	1e 01       	movw	r2, r28
     8c8:	01 ef       	ldi	r16, 0xF1	; 241
     8ca:	20 0e       	add	r2, r16
     8cc:	31 1c       	adc	r3, r1
     8ce:	d3 01       	movw	r26, r6
     8d0:	c2 01       	movw	r24, r4
     8d2:	01 97       	sbiw	r24, 0x01	; 1
     8d4:	a1 09       	sbc	r26, r1
     8d6:	b1 09       	sbc	r27, r1
     8d8:	4c 01       	movw	r8, r24
     8da:	88 0c       	add	r8, r8
     8dc:	99 1c       	adc	r9, r9
     8de:	88 0c       	add	r8, r8
     8e0:	99 1c       	adc	r9, r9
     8e2:	c1 5a       	subi	r28, 0xA1	; 161
     8e4:	de 4f       	sbci	r29, 0xFE	; 254
     8e6:	99 82       	std	Y+1, r9	; 0x01
     8e8:	88 82       	st	Y, r8
     8ea:	cf 55       	subi	r28, 0x5F	; 95
     8ec:	d1 40       	sbci	r29, 0x01	; 1
     8ee:	cb 5b       	subi	r28, 0xBB	; 187
     8f0:	de 4f       	sbci	r29, 0xFE	; 254
     8f2:	39 82       	std	Y+1, r3	; 0x01
     8f4:	28 82       	st	Y, r2
     8f6:	c5 54       	subi	r28, 0x45	; 69
     8f8:	d1 40       	sbci	r29, 0x01	; 1
     8fa:	53 01       	movw	r10, r6
     8fc:	42 01       	movw	r8, r4
     8fe:	00 e0       	ldi	r16, 0x00	; 0
     900:	10 e0       	ldi	r17, 0x00	; 0
     902:	18 14       	cp	r1, r8
     904:	19 04       	cpc	r1, r9
     906:	1a 04       	cpc	r1, r10
     908:	1b 04       	cpc	r1, r11
     90a:	0c f0       	brlt	.+2      	; 0x90e <__stack+0xf>
     90c:	59 c0       	rjmp	.+178    	; 0x9c0 <__stack+0xc1>
     90e:	20 e0       	ldi	r18, 0x00	; 0
     910:	30 e0       	ldi	r19, 0x00	; 0
     912:	40 e8       	ldi	r20, 0x80	; 128
     914:	53 e3       	ldi	r21, 0x33	; 51
     916:	c7 01       	movw	r24, r14
     918:	b6 01       	movw	r22, r12
     91a:	0e 94 c9 18 	call	0x3192	; 0x3192 <__mulsf3>
     91e:	0e 94 93 18 	call	0x3126	; 0x3126 <__fixsfsi>
     922:	0e 94 92 16 	call	0x2d24	; 0x2d24 <__floatsisf>
     926:	c7 5b       	subi	r28, 0xB7	; 183
     928:	de 4f       	sbci	r29, 0xFE	; 254
     92a:	68 83       	st	Y, r22
     92c:	79 83       	std	Y+1, r23	; 0x01
     92e:	8a 83       	std	Y+2, r24	; 0x02
     930:	9b 83       	std	Y+3, r25	; 0x03
     932:	c9 54       	subi	r28, 0x49	; 73
     934:	d1 40       	sbci	r29, 0x01	; 1
     936:	20 e0       	ldi	r18, 0x00	; 0
     938:	30 e0       	ldi	r19, 0x00	; 0
     93a:	40 e8       	ldi	r20, 0x80	; 128
     93c:	5b e4       	ldi	r21, 0x4B	; 75
     93e:	0e 94 c9 18 	call	0x3192	; 0x3192 <__mulsf3>
     942:	9b 01       	movw	r18, r22
     944:	ac 01       	movw	r20, r24
     946:	c7 01       	movw	r24, r14
     948:	b6 01       	movw	r22, r12
     94a:	0e 94 8c 18 	call	0x3118	; 0x3118 <__subsf3>
     94e:	0e 94 93 18 	call	0x3126	; 0x3126 <__fixsfsi>
     952:	cb 5b       	subi	r28, 0xBB	; 187
     954:	de 4f       	sbci	r29, 0xFE	; 254
     956:	a8 81       	ld	r26, Y
     958:	b9 81       	ldd	r27, Y+1	; 0x01
     95a:	c5 54       	subi	r28, 0x45	; 69
     95c:	d1 40       	sbci	r29, 0x01	; 1
     95e:	6d 93       	st	X+, r22
     960:	7d 93       	st	X+, r23
     962:	8d 93       	st	X+, r24
     964:	9d 93       	st	X+, r25
     966:	cb 5b       	subi	r28, 0xBB	; 187
     968:	de 4f       	sbci	r29, 0xFE	; 254
     96a:	b9 83       	std	Y+1, r27	; 0x01
     96c:	a8 83       	st	Y, r26
     96e:	c5 54       	subi	r28, 0x45	; 69
     970:	d1 40       	sbci	r29, 0x01	; 1
     972:	b1 e0       	ldi	r27, 0x01	; 1
     974:	8b 1a       	sub	r8, r27
     976:	91 08       	sbc	r9, r1
     978:	a1 08       	sbc	r10, r1
     97a:	b1 08       	sbc	r11, r1
     97c:	c1 5a       	subi	r28, 0xA1	; 161
     97e:	de 4f       	sbci	r29, 0xFE	; 254
     980:	e8 81       	ld	r30, Y
     982:	f9 81       	ldd	r31, Y+1	; 0x01
     984:	cf 55       	subi	r28, 0x5F	; 95
     986:	d1 40       	sbci	r29, 0x01	; 1
     988:	e0 0f       	add	r30, r16
     98a:	f1 1f       	adc	r31, r17
     98c:	cc 24       	eor	r12, r12
     98e:	c3 94       	inc	r12
     990:	d1 2c       	mov	r13, r1
     992:	cc 0e       	add	r12, r28
     994:	dd 1e       	adc	r13, r29
     996:	ec 0d       	add	r30, r12
     998:	fd 1d       	adc	r31, r13
     99a:	20 81       	ld	r18, Z
     99c:	31 81       	ldd	r19, Z+1	; 0x01
     99e:	42 81       	ldd	r20, Z+2	; 0x02
     9a0:	53 81       	ldd	r21, Z+3	; 0x03
     9a2:	c7 5b       	subi	r28, 0xB7	; 183
     9a4:	de 4f       	sbci	r29, 0xFE	; 254
     9a6:	68 81       	ld	r22, Y
     9a8:	79 81       	ldd	r23, Y+1	; 0x01
     9aa:	8a 81       	ldd	r24, Y+2	; 0x02
     9ac:	9b 81       	ldd	r25, Y+3	; 0x03
     9ae:	c9 54       	subi	r28, 0x49	; 73
     9b0:	d1 40       	sbci	r29, 0x01	; 1
     9b2:	0e 94 8d 18 	call	0x311a	; 0x311a <__addsf3>
     9b6:	6b 01       	movw	r12, r22
     9b8:	7c 01       	movw	r14, r24
     9ba:	04 50       	subi	r16, 0x04	; 4
     9bc:	11 09       	sbc	r17, r1
     9be:	a1 cf       	rjmp	.-190    	; 0x902 <__stack+0x3>
     9c0:	cf 5b       	subi	r28, 0xBF	; 191
     9c2:	de 4f       	sbci	r29, 0xFE	; 254
     9c4:	08 81       	ld	r16, Y
     9c6:	19 81       	ldd	r17, Y+1	; 0x01
     9c8:	c1 54       	subi	r28, 0x41	; 65
     9ca:	d1 40       	sbci	r29, 0x01	; 1
     9cc:	a8 01       	movw	r20, r16
     9ce:	c7 01       	movw	r24, r14
     9d0:	b6 01       	movw	r22, r12
     9d2:	0e 94 e6 15 	call	0x2bcc	; 0x2bcc <scalbnf>
     9d6:	6b 01       	movw	r12, r22
     9d8:	7c 01       	movw	r14, r24
     9da:	20 e0       	ldi	r18, 0x00	; 0
     9dc:	30 e0       	ldi	r19, 0x00	; 0
     9de:	40 e0       	ldi	r20, 0x00	; 0
     9e0:	5e e3       	ldi	r21, 0x3E	; 62
     9e2:	0e 94 c9 18 	call	0x3192	; 0x3192 <__mulsf3>
     9e6:	0e 94 8b 12 	call	0x2516	; 0x2516 <floorf>
     9ea:	20 e0       	ldi	r18, 0x00	; 0
     9ec:	30 e0       	ldi	r19, 0x00	; 0
     9ee:	40 e0       	ldi	r20, 0x00	; 0
     9f0:	51 e4       	ldi	r21, 0x41	; 65
     9f2:	0e 94 c9 18 	call	0x3192	; 0x3192 <__mulsf3>
     9f6:	9b 01       	movw	r18, r22
     9f8:	ac 01       	movw	r20, r24
     9fa:	c7 01       	movw	r24, r14
     9fc:	b6 01       	movw	r22, r12
     9fe:	0e 94 8c 18 	call	0x3118	; 0x3118 <__subsf3>
     a02:	6b 01       	movw	r12, r22
     a04:	7c 01       	movw	r14, r24
     a06:	0e 94 93 18 	call	0x3126	; 0x3126 <__fixsfsi>
     a0a:	c7 5b       	subi	r28, 0xB7	; 183
     a0c:	de 4f       	sbci	r29, 0xFE	; 254
     a0e:	68 83       	st	Y, r22
     a10:	79 83       	std	Y+1, r23	; 0x01
     a12:	8a 83       	std	Y+2, r24	; 0x02
     a14:	9b 83       	std	Y+3, r25	; 0x03
     a16:	c9 54       	subi	r28, 0x49	; 73
     a18:	d1 40       	sbci	r29, 0x01	; 1
     a1a:	0e 94 92 16 	call	0x2d24	; 0x2d24 <__floatsisf>
     a1e:	9b 01       	movw	r18, r22
     a20:	ac 01       	movw	r20, r24
     a22:	c7 01       	movw	r24, r14
     a24:	b6 01       	movw	r22, r12
     a26:	0e 94 8c 18 	call	0x3118	; 0x3118 <__subsf3>
     a2a:	6b 01       	movw	r12, r22
     a2c:	7c 01       	movw	r14, r24
     a2e:	cf 5b       	subi	r28, 0xBF	; 191
     a30:	de 4f       	sbci	r29, 0xFE	; 254
     a32:	88 80       	ld	r8, Y
     a34:	99 80       	ldd	r9, Y+1	; 0x01
     a36:	aa 80       	ldd	r10, Y+2	; 0x02
     a38:	bb 80       	ldd	r11, Y+3	; 0x03
     a3a:	c1 54       	subi	r28, 0x41	; 65
     a3c:	d1 40       	sbci	r29, 0x01	; 1
     a3e:	18 14       	cp	r1, r8
     a40:	19 04       	cpc	r1, r9
     a42:	1a 04       	cpc	r1, r10
     a44:	1b 04       	cpc	r1, r11
     a46:	0c f0       	brlt	.+2      	; 0xa4a <__stack+0x14b>
     a48:	5a c0       	rjmp	.+180    	; 0xafe <__stack+0x1ff>
     a4a:	d3 01       	movw	r26, r6
     a4c:	c2 01       	movw	r24, r4
     a4e:	01 97       	sbiw	r24, 0x01	; 1
     a50:	a1 09       	sbc	r26, r1
     a52:	b1 09       	sbc	r27, r1
     a54:	fc 01       	movw	r30, r24
     a56:	ee 0f       	add	r30, r30
     a58:	ff 1f       	adc	r31, r31
     a5a:	ee 0f       	add	r30, r30
     a5c:	ff 1f       	adc	r31, r31
     a5e:	71 ef       	ldi	r23, 0xF1	; 241
     a60:	a7 2e       	mov	r10, r23
     a62:	b1 2c       	mov	r11, r1
     a64:	ac 0e       	add	r10, r28
     a66:	bd 1e       	adc	r11, r29
     a68:	ea 0d       	add	r30, r10
     a6a:	fb 1d       	adc	r31, r11
     a6c:	80 81       	ld	r24, Z
     a6e:	91 81       	ldd	r25, Z+1	; 0x01
     a70:	a2 81       	ldd	r26, Z+2	; 0x02
     a72:	b3 81       	ldd	r27, Z+3	; 0x03
     a74:	28 e1       	ldi	r18, 0x18	; 24
     a76:	30 e0       	ldi	r19, 0x00	; 0
     a78:	28 19       	sub	r18, r8
     a7a:	39 09       	sbc	r19, r9
     a7c:	ac 01       	movw	r20, r24
     a7e:	bd 01       	movw	r22, r26
     a80:	02 2e       	mov	r0, r18
     a82:	04 c0       	rjmp	.+8      	; 0xa8c <__stack+0x18d>
     a84:	75 95       	asr	r23
     a86:	67 95       	ror	r22
     a88:	57 95       	ror	r21
     a8a:	47 95       	ror	r20
     a8c:	0a 94       	dec	r0
     a8e:	d2 f7       	brpl	.-12     	; 0xa84 <__stack+0x185>
     a90:	c7 5b       	subi	r28, 0xB7	; 183
     a92:	de 4f       	sbci	r29, 0xFE	; 254
     a94:	88 80       	ld	r8, Y
     a96:	99 80       	ldd	r9, Y+1	; 0x01
     a98:	aa 80       	ldd	r10, Y+2	; 0x02
     a9a:	bb 80       	ldd	r11, Y+3	; 0x03
     a9c:	c9 54       	subi	r28, 0x49	; 73
     a9e:	d1 40       	sbci	r29, 0x01	; 1
     aa0:	84 0e       	add	r8, r20
     aa2:	95 1e       	adc	r9, r21
     aa4:	a6 1e       	adc	r10, r22
     aa6:	b7 1e       	adc	r11, r23
     aa8:	c7 5b       	subi	r28, 0xB7	; 183
     aaa:	de 4f       	sbci	r29, 0xFE	; 254
     aac:	88 82       	st	Y, r8
     aae:	99 82       	std	Y+1, r9	; 0x01
     ab0:	aa 82       	std	Y+2, r10	; 0x02
     ab2:	bb 82       	std	Y+3, r11	; 0x03
     ab4:	c9 54       	subi	r28, 0x49	; 73
     ab6:	d1 40       	sbci	r29, 0x01	; 1
     ab8:	04 c0       	rjmp	.+8      	; 0xac2 <__stack+0x1c3>
     aba:	44 0f       	add	r20, r20
     abc:	55 1f       	adc	r21, r21
     abe:	66 1f       	adc	r22, r22
     ac0:	77 1f       	adc	r23, r23
     ac2:	2a 95       	dec	r18
     ac4:	d2 f7       	brpl	.-12     	; 0xaba <__stack+0x1bb>
     ac6:	84 1b       	sub	r24, r20
     ac8:	95 0b       	sbc	r25, r21
     aca:	a6 0b       	sbc	r26, r22
     acc:	b7 0b       	sbc	r27, r23
     ace:	80 83       	st	Z, r24
     ad0:	91 83       	std	Z+1, r25	; 0x01
     ad2:	a2 83       	std	Z+2, r26	; 0x02
     ad4:	b3 83       	std	Z+3, r27	; 0x03
     ad6:	27 e1       	ldi	r18, 0x17	; 23
     ad8:	30 e0       	ldi	r19, 0x00	; 0
     ada:	cf 5b       	subi	r28, 0xBF	; 191
     adc:	de 4f       	sbci	r29, 0xFE	; 254
     ade:	a8 80       	ld	r10, Y
     ae0:	b9 80       	ldd	r11, Y+1	; 0x01
     ae2:	c1 54       	subi	r28, 0x41	; 65
     ae4:	d1 40       	sbci	r29, 0x01	; 1
     ae6:	2a 19       	sub	r18, r10
     ae8:	3b 09       	sbc	r19, r11
     aea:	4c 01       	movw	r8, r24
     aec:	5d 01       	movw	r10, r26
     aee:	04 c0       	rjmp	.+8      	; 0xaf8 <__stack+0x1f9>
     af0:	b5 94       	asr	r11
     af2:	a7 94       	ror	r10
     af4:	97 94       	ror	r9
     af6:	87 94       	ror	r8
     af8:	2a 95       	dec	r18
     afa:	d2 f7       	brpl	.-12     	; 0xaf0 <__stack+0x1f1>
     afc:	28 c0       	rjmp	.+80     	; 0xb4e <__stack+0x24f>
     afe:	cf 5b       	subi	r28, 0xBF	; 191
     b00:	de 4f       	sbci	r29, 0xFE	; 254
     b02:	88 80       	ld	r8, Y
     b04:	99 80       	ldd	r9, Y+1	; 0x01
     b06:	aa 80       	ldd	r10, Y+2	; 0x02
     b08:	bb 80       	ldd	r11, Y+3	; 0x03
     b0a:	c1 54       	subi	r28, 0x41	; 65
     b0c:	d1 40       	sbci	r29, 0x01	; 1
     b0e:	89 28       	or	r8, r9
     b10:	8a 28       	or	r8, r10
     b12:	8b 28       	or	r8, r11
     b14:	91 f5       	brne	.+100    	; 0xb7a <__stack+0x27b>
     b16:	d3 01       	movw	r26, r6
     b18:	c2 01       	movw	r24, r4
     b1a:	01 97       	sbiw	r24, 0x01	; 1
     b1c:	a1 09       	sbc	r26, r1
     b1e:	b1 09       	sbc	r27, r1
     b20:	88 0f       	add	r24, r24
     b22:	99 1f       	adc	r25, r25
     b24:	88 0f       	add	r24, r24
     b26:	99 1f       	adc	r25, r25
     b28:	e1 ef       	ldi	r30, 0xF1	; 241
     b2a:	f0 e0       	ldi	r31, 0x00	; 0
     b2c:	ec 0f       	add	r30, r28
     b2e:	fd 1f       	adc	r31, r29
     b30:	e8 0f       	add	r30, r24
     b32:	f9 1f       	adc	r31, r25
     b34:	80 81       	ld	r24, Z
     b36:	91 81       	ldd	r25, Z+1	; 0x01
     b38:	a2 81       	ldd	r26, Z+2	; 0x02
     b3a:	b3 81       	ldd	r27, Z+3	; 0x03
     b3c:	4c 01       	movw	r8, r24
     b3e:	5d 01       	movw	r10, r26
     b40:	57 e1       	ldi	r21, 0x17	; 23
     b42:	b5 94       	asr	r11
     b44:	a7 94       	ror	r10
     b46:	97 94       	ror	r9
     b48:	87 94       	ror	r8
     b4a:	5a 95       	dec	r21
     b4c:	d1 f7       	brne	.-12     	; 0xb42 <__stack+0x243>
     b4e:	cb 5b       	subi	r28, 0xBB	; 187
     b50:	de 4f       	sbci	r29, 0xFE	; 254
     b52:	88 82       	st	Y, r8
     b54:	99 82       	std	Y+1, r9	; 0x01
     b56:	aa 82       	std	Y+2, r10	; 0x02
     b58:	bb 82       	std	Y+3, r11	; 0x03
     b5a:	c5 54       	subi	r28, 0x45	; 69
     b5c:	d1 40       	sbci	r29, 0x01	; 1
     b5e:	cb 5b       	subi	r28, 0xBB	; 187
     b60:	de 4f       	sbci	r29, 0xFE	; 254
     b62:	88 80       	ld	r8, Y
     b64:	99 80       	ldd	r9, Y+1	; 0x01
     b66:	aa 80       	ldd	r10, Y+2	; 0x02
     b68:	bb 80       	ldd	r11, Y+3	; 0x03
     b6a:	c5 54       	subi	r28, 0x45	; 69
     b6c:	d1 40       	sbci	r29, 0x01	; 1
     b6e:	18 14       	cp	r1, r8
     b70:	19 04       	cpc	r1, r9
     b72:	1a 04       	cpc	r1, r10
     b74:	1b 04       	cpc	r1, r11
     b76:	fc f0       	brlt	.+62     	; 0xbb6 <__stack+0x2b7>
     b78:	e2 c0       	rjmp	.+452    	; 0xd3e <__stack+0x43f>
     b7a:	20 e0       	ldi	r18, 0x00	; 0
     b7c:	30 e0       	ldi	r19, 0x00	; 0
     b7e:	40 e0       	ldi	r20, 0x00	; 0
     b80:	5f e3       	ldi	r21, 0x3F	; 63
     b82:	0e 94 c0 18 	call	0x3180	; 0x3180 <__gesf2>
     b86:	87 ff       	sbrs	r24, 7
     b88:	09 c0       	rjmp	.+18     	; 0xb9c <__stack+0x29d>
     b8a:	cb 5b       	subi	r28, 0xBB	; 187
     b8c:	de 4f       	sbci	r29, 0xFE	; 254
     b8e:	18 82       	st	Y, r1
     b90:	19 82       	std	Y+1, r1	; 0x01
     b92:	1a 82       	std	Y+2, r1	; 0x02
     b94:	1b 82       	std	Y+3, r1	; 0x03
     b96:	c5 54       	subi	r28, 0x45	; 69
     b98:	d1 40       	sbci	r29, 0x01	; 1
     b9a:	d1 c0       	rjmp	.+418    	; 0xd3e <__stack+0x43f>
     b9c:	32 e0       	ldi	r19, 0x02	; 2
     b9e:	83 2e       	mov	r8, r19
     ba0:	91 2c       	mov	r9, r1
     ba2:	a1 2c       	mov	r10, r1
     ba4:	b1 2c       	mov	r11, r1
     ba6:	cb 5b       	subi	r28, 0xBB	; 187
     ba8:	de 4f       	sbci	r29, 0xFE	; 254
     baa:	88 82       	st	Y, r8
     bac:	99 82       	std	Y+1, r9	; 0x01
     bae:	aa 82       	std	Y+2, r10	; 0x02
     bb0:	bb 82       	std	Y+3, r11	; 0x03
     bb2:	c5 54       	subi	r28, 0x45	; 69
     bb4:	d1 40       	sbci	r29, 0x01	; 1
     bb6:	c7 5b       	subi	r28, 0xB7	; 183
     bb8:	de 4f       	sbci	r29, 0xFE	; 254
     bba:	28 81       	ld	r18, Y
     bbc:	39 81       	ldd	r19, Y+1	; 0x01
     bbe:	4a 81       	ldd	r20, Y+2	; 0x02
     bc0:	5b 81       	ldd	r21, Y+3	; 0x03
     bc2:	c9 54       	subi	r28, 0x49	; 73
     bc4:	d1 40       	sbci	r29, 0x01	; 1
     bc6:	2f 5f       	subi	r18, 0xFF	; 255
     bc8:	3f 4f       	sbci	r19, 0xFF	; 255
     bca:	4f 4f       	sbci	r20, 0xFF	; 255
     bcc:	5f 4f       	sbci	r21, 0xFF	; 255
     bce:	c7 5b       	subi	r28, 0xB7	; 183
     bd0:	de 4f       	sbci	r29, 0xFE	; 254
     bd2:	28 83       	st	Y, r18
     bd4:	39 83       	std	Y+1, r19	; 0x01
     bd6:	4a 83       	std	Y+2, r20	; 0x02
     bd8:	5b 83       	std	Y+3, r21	; 0x03
     bda:	c9 54       	subi	r28, 0x49	; 73
     bdc:	d1 40       	sbci	r29, 0x01	; 1
     bde:	80 e0       	ldi	r24, 0x00	; 0
     be0:	90 e0       	ldi	r25, 0x00	; 0
     be2:	dc 01       	movw	r26, r24
     be4:	81 2c       	mov	r8, r1
     be6:	91 2c       	mov	r9, r1
     be8:	54 01       	movw	r10, r8
     bea:	84 15       	cp	r24, r4
     bec:	95 05       	cpc	r25, r5
     bee:	a6 05       	cpc	r26, r6
     bf0:	b7 05       	cpc	r27, r7
     bf2:	ac f5       	brge	.+106    	; 0xc5e <__stack+0x35f>
     bf4:	f1 01       	movw	r30, r2
     bf6:	40 81       	ld	r20, Z
     bf8:	51 81       	ldd	r21, Z+1	; 0x01
     bfa:	62 81       	ldd	r22, Z+2	; 0x02
     bfc:	73 81       	ldd	r23, Z+3	; 0x03
     bfe:	81 14       	cp	r8, r1
     c00:	91 04       	cpc	r9, r1
     c02:	a1 04       	cpc	r10, r1
     c04:	b1 04       	cpc	r11, r1
     c06:	81 f4       	brne	.+32     	; 0xc28 <__stack+0x329>
     c08:	41 15       	cp	r20, r1
     c0a:	51 05       	cpc	r21, r1
     c0c:	61 05       	cpc	r22, r1
     c0e:	71 05       	cpc	r23, r1
     c10:	f9 f0       	breq	.+62     	; 0xc50 <__stack+0x351>
     c12:	81 2c       	mov	r8, r1
     c14:	91 2c       	mov	r9, r1
     c16:	54 01       	movw	r10, r8
     c18:	b3 94       	inc	r11
     c1a:	84 1a       	sub	r8, r20
     c1c:	95 0a       	sbc	r9, r21
     c1e:	a6 0a       	sbc	r10, r22
     c20:	b7 0a       	sbc	r11, r23
     c22:	b5 01       	movw	r22, r10
     c24:	a4 01       	movw	r20, r8
     c26:	0c c0       	rjmp	.+24     	; 0xc40 <__stack+0x341>
     c28:	88 24       	eor	r8, r8
     c2a:	8a 94       	dec	r8
     c2c:	98 2c       	mov	r9, r8
     c2e:	a8 2c       	mov	r10, r8
     c30:	b1 2c       	mov	r11, r1
     c32:	84 1a       	sub	r8, r20
     c34:	95 0a       	sbc	r9, r21
     c36:	a6 0a       	sbc	r10, r22
     c38:	b7 0a       	sbc	r11, r23
     c3a:	b5 01       	movw	r22, r10
     c3c:	a4 01       	movw	r20, r8
     c3e:	f1 01       	movw	r30, r2
     c40:	40 83       	st	Z, r20
     c42:	51 83       	std	Z+1, r21	; 0x01
     c44:	62 83       	std	Z+2, r22	; 0x02
     c46:	73 83       	std	Z+3, r23	; 0x03
     c48:	81 2c       	mov	r8, r1
     c4a:	91 2c       	mov	r9, r1
     c4c:	54 01       	movw	r10, r8
     c4e:	83 94       	inc	r8
     c50:	01 96       	adiw	r24, 0x01	; 1
     c52:	a1 1d       	adc	r26, r1
     c54:	b1 1d       	adc	r27, r1
     c56:	f4 e0       	ldi	r31, 0x04	; 4
     c58:	2f 0e       	add	r2, r31
     c5a:	31 1c       	adc	r3, r1
     c5c:	c6 cf       	rjmp	.-116    	; 0xbea <__stack+0x2eb>
     c5e:	cf 5b       	subi	r28, 0xBF	; 191
     c60:	de 4f       	sbci	r29, 0xFE	; 254
     c62:	28 81       	ld	r18, Y
     c64:	39 81       	ldd	r19, Y+1	; 0x01
     c66:	4a 81       	ldd	r20, Y+2	; 0x02
     c68:	5b 81       	ldd	r21, Y+3	; 0x03
     c6a:	c1 54       	subi	r28, 0x41	; 65
     c6c:	d1 40       	sbci	r29, 0x01	; 1
     c6e:	12 16       	cp	r1, r18
     c70:	13 06       	cpc	r1, r19
     c72:	14 06       	cpc	r1, r20
     c74:	15 06       	cpc	r1, r21
     c76:	cc f5       	brge	.+114    	; 0xcea <__stack+0x3eb>
     c78:	21 30       	cpi	r18, 0x01	; 1
     c7a:	31 05       	cpc	r19, r1
     c7c:	41 05       	cpc	r20, r1
     c7e:	51 05       	cpc	r21, r1
     c80:	d9 f0       	breq	.+54     	; 0xcb8 <__stack+0x3b9>
     c82:	22 30       	cpi	r18, 0x02	; 2
     c84:	31 05       	cpc	r19, r1
     c86:	41 05       	cpc	r20, r1
     c88:	51 05       	cpc	r21, r1
     c8a:	79 f5       	brne	.+94     	; 0xcea <__stack+0x3eb>
     c8c:	d3 01       	movw	r26, r6
     c8e:	c2 01       	movw	r24, r4
     c90:	01 97       	sbiw	r24, 0x01	; 1
     c92:	a1 09       	sbc	r26, r1
     c94:	b1 09       	sbc	r27, r1
     c96:	88 0f       	add	r24, r24
     c98:	99 1f       	adc	r25, r25
     c9a:	88 0f       	add	r24, r24
     c9c:	99 1f       	adc	r25, r25
     c9e:	e1 ef       	ldi	r30, 0xF1	; 241
     ca0:	f0 e0       	ldi	r31, 0x00	; 0
     ca2:	ec 0f       	add	r30, r28
     ca4:	fd 1f       	adc	r31, r29
     ca6:	e8 0f       	add	r30, r24
     ca8:	f9 1f       	adc	r31, r25
     caa:	40 81       	ld	r20, Z
     cac:	51 81       	ldd	r21, Z+1	; 0x01
     cae:	62 81       	ldd	r22, Z+2	; 0x02
     cb0:	73 81       	ldd	r23, Z+3	; 0x03
     cb2:	6f 73       	andi	r22, 0x3F	; 63
     cb4:	77 27       	eor	r23, r23
     cb6:	15 c0       	rjmp	.+42     	; 0xce2 <__stack+0x3e3>
     cb8:	d3 01       	movw	r26, r6
     cba:	c2 01       	movw	r24, r4
     cbc:	01 97       	sbiw	r24, 0x01	; 1
     cbe:	a1 09       	sbc	r26, r1
     cc0:	b1 09       	sbc	r27, r1
     cc2:	88 0f       	add	r24, r24
     cc4:	99 1f       	adc	r25, r25
     cc6:	88 0f       	add	r24, r24
     cc8:	99 1f       	adc	r25, r25
     cca:	e1 ef       	ldi	r30, 0xF1	; 241
     ccc:	f0 e0       	ldi	r31, 0x00	; 0
     cce:	ec 0f       	add	r30, r28
     cd0:	fd 1f       	adc	r31, r29
     cd2:	e8 0f       	add	r30, r24
     cd4:	f9 1f       	adc	r31, r25
     cd6:	40 81       	ld	r20, Z
     cd8:	51 81       	ldd	r21, Z+1	; 0x01
     cda:	62 81       	ldd	r22, Z+2	; 0x02
     cdc:	73 81       	ldd	r23, Z+3	; 0x03
     cde:	6f 77       	andi	r22, 0x7F	; 127
     ce0:	77 27       	eor	r23, r23
     ce2:	40 83       	st	Z, r20
     ce4:	51 83       	std	Z+1, r21	; 0x01
     ce6:	62 83       	std	Z+2, r22	; 0x02
     ce8:	73 83       	std	Z+3, r23	; 0x03
     cea:	cb 5b       	subi	r28, 0xBB	; 187
     cec:	de 4f       	sbci	r29, 0xFE	; 254
     cee:	48 81       	ld	r20, Y
     cf0:	59 81       	ldd	r21, Y+1	; 0x01
     cf2:	6a 81       	ldd	r22, Y+2	; 0x02
     cf4:	7b 81       	ldd	r23, Y+3	; 0x03
     cf6:	c5 54       	subi	r28, 0x45	; 69
     cf8:	d1 40       	sbci	r29, 0x01	; 1
     cfa:	42 30       	cpi	r20, 0x02	; 2
     cfc:	51 05       	cpc	r21, r1
     cfe:	61 05       	cpc	r22, r1
     d00:	71 05       	cpc	r23, r1
     d02:	e9 f4       	brne	.+58     	; 0xd3e <__stack+0x43f>
     d04:	a7 01       	movw	r20, r14
     d06:	96 01       	movw	r18, r12
     d08:	60 e0       	ldi	r22, 0x00	; 0
     d0a:	70 e0       	ldi	r23, 0x00	; 0
     d0c:	80 e8       	ldi	r24, 0x80	; 128
     d0e:	9f e3       	ldi	r25, 0x3F	; 63
     d10:	0e 94 8c 18 	call	0x3118	; 0x3118 <__subsf3>
     d14:	6b 01       	movw	r12, r22
     d16:	7c 01       	movw	r14, r24
     d18:	89 28       	or	r8, r9
     d1a:	8a 28       	or	r8, r10
     d1c:	8b 28       	or	r8, r11
     d1e:	79 f0       	breq	.+30     	; 0xd3e <__stack+0x43f>
     d20:	a8 01       	movw	r20, r16
     d22:	60 e0       	ldi	r22, 0x00	; 0
     d24:	70 e0       	ldi	r23, 0x00	; 0
     d26:	80 e8       	ldi	r24, 0x80	; 128
     d28:	9f e3       	ldi	r25, 0x3F	; 63
     d2a:	0e 94 e6 15 	call	0x2bcc	; 0x2bcc <scalbnf>
     d2e:	9b 01       	movw	r18, r22
     d30:	ac 01       	movw	r20, r24
     d32:	c7 01       	movw	r24, r14
     d34:	b6 01       	movw	r22, r12
     d36:	0e 94 8c 18 	call	0x3118	; 0x3118 <__subsf3>
     d3a:	6b 01       	movw	r12, r22
     d3c:	7c 01       	movw	r14, r24
     d3e:	20 e0       	ldi	r18, 0x00	; 0
     d40:	30 e0       	ldi	r19, 0x00	; 0
     d42:	a9 01       	movw	r20, r18
     d44:	c7 01       	movw	r24, r14
     d46:	b6 01       	movw	r22, r12
     d48:	0e 94 bb 18 	call	0x3176	; 0x3176 <__cmpsf2>
     d4c:	81 11       	cpse	r24, r1
     d4e:	cf c1       	rjmp	.+926    	; 0x10ee <__stack+0x7ef>
     d50:	73 01       	movw	r14, r6
     d52:	62 01       	movw	r12, r4
     d54:	51 e0       	ldi	r21, 0x01	; 1
     d56:	c5 1a       	sub	r12, r21
     d58:	d1 08       	sbc	r13, r1
     d5a:	e1 08       	sbc	r14, r1
     d5c:	f1 08       	sbc	r15, r1
     d5e:	b3 01       	movw	r22, r6
     d60:	a2 01       	movw	r20, r4
     d62:	20 e0       	ldi	r18, 0x00	; 0
     d64:	30 e0       	ldi	r19, 0x00	; 0
     d66:	80 e0       	ldi	r24, 0x00	; 0
     d68:	90 e0       	ldi	r25, 0x00	; 0
     d6a:	dc 01       	movw	r26, r24
     d6c:	41 50       	subi	r20, 0x01	; 1
     d6e:	51 09       	sbc	r21, r1
     d70:	61 09       	sbc	r22, r1
     d72:	71 09       	sbc	r23, r1
     d74:	cb 5a       	subi	r28, 0xAB	; 171
     d76:	de 4f       	sbci	r29, 0xFE	; 254
     d78:	88 80       	ld	r8, Y
     d7a:	99 80       	ldd	r9, Y+1	; 0x01
     d7c:	aa 80       	ldd	r10, Y+2	; 0x02
     d7e:	bb 80       	ldd	r11, Y+3	; 0x03
     d80:	c5 55       	subi	r28, 0x55	; 85
     d82:	d1 40       	sbci	r29, 0x01	; 1
     d84:	48 15       	cp	r20, r8
     d86:	59 05       	cpc	r21, r9
     d88:	6a 05       	cpc	r22, r10
     d8a:	7b 05       	cpc	r23, r11
     d8c:	d4 f0       	brlt	.+52     	; 0xdc2 <__stack+0x4c3>
     d8e:	c1 5a       	subi	r28, 0xA1	; 161
     d90:	de 4f       	sbci	r29, 0xFE	; 254
     d92:	e8 81       	ld	r30, Y
     d94:	f9 81       	ldd	r31, Y+1	; 0x01
     d96:	cf 55       	subi	r28, 0x5F	; 95
     d98:	d1 40       	sbci	r29, 0x01	; 1
     d9a:	e2 0f       	add	r30, r18
     d9c:	f3 1f       	adc	r31, r19
     d9e:	11 ef       	ldi	r17, 0xF1	; 241
     da0:	81 2e       	mov	r8, r17
     da2:	91 2c       	mov	r9, r1
     da4:	8c 0e       	add	r8, r28
     da6:	9d 1e       	adc	r9, r29
     da8:	e8 0d       	add	r30, r8
     daa:	f9 1d       	adc	r31, r9
     dac:	80 80       	ld	r8, Z
     dae:	91 80       	ldd	r9, Z+1	; 0x01
     db0:	a2 80       	ldd	r10, Z+2	; 0x02
     db2:	b3 80       	ldd	r11, Z+3	; 0x03
     db4:	88 29       	or	r24, r8
     db6:	99 29       	or	r25, r9
     db8:	aa 29       	or	r26, r10
     dba:	bb 29       	or	r27, r11
     dbc:	24 50       	subi	r18, 0x04	; 4
     dbe:	31 09       	sbc	r19, r1
     dc0:	d5 cf       	rjmp	.-86     	; 0xd6c <__stack+0x46d>
     dc2:	89 2b       	or	r24, r25
     dc4:	8a 2b       	or	r24, r26
     dc6:	8b 2b       	or	r24, r27
     dc8:	09 f0       	breq	.+2      	; 0xdcc <__stack+0x4cd>
     dca:	46 c1       	rjmp	.+652    	; 0x1058 <__stack+0x759>
     dcc:	80 e0       	ldi	r24, 0x00	; 0
     dce:	90 e0       	ldi	r25, 0x00	; 0
     dd0:	41 e0       	ldi	r20, 0x01	; 1
     dd2:	50 e0       	ldi	r21, 0x00	; 0
     dd4:	60 e0       	ldi	r22, 0x00	; 0
     dd6:	70 e0       	ldi	r23, 0x00	; 0
     dd8:	04 97       	sbiw	r24, 0x04	; 4
     dda:	c4 59       	subi	r28, 0x94	; 148
     ddc:	de 4f       	sbci	r29, 0xFE	; 254
     dde:	e8 81       	ld	r30, Y
     de0:	f9 81       	ldd	r31, Y+1	; 0x01
     de2:	cc 56       	subi	r28, 0x6C	; 108
     de4:	d1 40       	sbci	r29, 0x01	; 1
     de6:	e8 0f       	add	r30, r24
     de8:	f9 1f       	adc	r31, r25
     dea:	21 ef       	ldi	r18, 0xF1	; 241
     dec:	a2 2e       	mov	r10, r18
     dee:	b1 2c       	mov	r11, r1
     df0:	ac 0e       	add	r10, r28
     df2:	bd 1e       	adc	r11, r29
     df4:	ea 0d       	add	r30, r10
     df6:	fb 1d       	adc	r31, r11
     df8:	04 81       	ldd	r16, Z+4	; 0x04
     dfa:	15 81       	ldd	r17, Z+5	; 0x05
     dfc:	26 81       	ldd	r18, Z+6	; 0x06
     dfe:	37 81       	ldd	r19, Z+7	; 0x07
     e00:	01 2b       	or	r16, r17
     e02:	02 2b       	or	r16, r18
     e04:	03 2b       	or	r16, r19
     e06:	29 f4       	brne	.+10     	; 0xe12 <__stack+0x513>
     e08:	4f 5f       	subi	r20, 0xFF	; 255
     e0a:	5f 4f       	sbci	r21, 0xFF	; 255
     e0c:	6f 4f       	sbci	r22, 0xFF	; 255
     e0e:	7f 4f       	sbci	r23, 0xFF	; 255
     e10:	e3 cf       	rjmp	.-58     	; 0xdd8 <__stack+0x4d9>
     e12:	53 01       	movw	r10, r6
     e14:	42 01       	movw	r8, r4
     e16:	0f ef       	ldi	r16, 0xFF	; 255
     e18:	80 1a       	sub	r8, r16
     e1a:	90 0a       	sbc	r9, r16
     e1c:	a0 0a       	sbc	r10, r16
     e1e:	b0 0a       	sbc	r11, r16
     e20:	c7 5a       	subi	r28, 0xA7	; 167
     e22:	de 4f       	sbci	r29, 0xFE	; 254
     e24:	c8 80       	ld	r12, Y
     e26:	d9 80       	ldd	r13, Y+1	; 0x01
     e28:	ea 80       	ldd	r14, Y+2	; 0x02
     e2a:	fb 80       	ldd	r15, Y+3	; 0x03
     e2c:	c9 55       	subi	r28, 0x59	; 89
     e2e:	d1 40       	sbci	r29, 0x01	; 1
     e30:	c8 0c       	add	r12, r8
     e32:	d9 1c       	adc	r13, r9
     e34:	ea 1c       	adc	r14, r10
     e36:	fb 1c       	adc	r15, r11
     e38:	cc 0c       	add	r12, r12
     e3a:	dd 1c       	adc	r13, r13
     e3c:	cc 0c       	add	r12, r12
     e3e:	dd 1c       	adc	r13, r13
     e40:	c6 01       	movw	r24, r12
     e42:	dd 0c       	add	r13, r13
     e44:	aa 0b       	sbc	r26, r26
     e46:	8c 01       	movw	r16, r24
     e48:	2a 2f       	mov	r18, r26
     e4a:	01 55       	subi	r16, 0x51	; 81
     e4c:	1c 4f       	sbci	r17, 0xFC	; 252
     e4e:	2f 4f       	sbci	r18, 0xFF	; 255
     e50:	68 01       	movw	r12, r16
     e52:	e2 2e       	mov	r14, r18
     e54:	c2 59       	subi	r28, 0x92	; 146
     e56:	de 4f       	sbci	r29, 0xFE	; 254
     e58:	88 81       	ld	r24, Y
     e5a:	99 81       	ldd	r25, Y+1	; 0x01
     e5c:	aa 81       	ldd	r26, Y+2	; 0x02
     e5e:	bb 81       	ldd	r27, Y+3	; 0x03
     e60:	ce 56       	subi	r28, 0x6E	; 110
     e62:	d1 40       	sbci	r29, 0x01	; 1
     e64:	88 0d       	add	r24, r8
     e66:	99 1d       	adc	r25, r9
     e68:	aa 1d       	adc	r26, r10
     e6a:	bb 1d       	adc	r27, r11
     e6c:	8c 01       	movw	r16, r24
     e6e:	00 0f       	add	r16, r16
     e70:	11 1f       	adc	r17, r17
     e72:	00 0f       	add	r16, r16
     e74:	11 1f       	adc	r17, r17
     e76:	c6 59       	subi	r28, 0x96	; 150
     e78:	de 4f       	sbci	r29, 0xFE	; 254
     e7a:	19 83       	std	Y+1, r17	; 0x01
     e7c:	08 83       	st	Y, r16
     e7e:	ca 56       	subi	r28, 0x6A	; 106
     e80:	d1 40       	sbci	r29, 0x01	; 1
     e82:	84 01       	movw	r16, r8
     e84:	00 0f       	add	r16, r16
     e86:	11 1f       	adc	r17, r17
     e88:	00 0f       	add	r16, r16
     e8a:	11 1f       	adc	r17, r17
     e8c:	c9 59       	subi	r28, 0x99	; 153
     e8e:	de 4f       	sbci	r29, 0xFE	; 254
     e90:	19 83       	std	Y+1, r17	; 0x01
     e92:	08 83       	st	Y, r16
     e94:	c7 56       	subi	r28, 0x67	; 103
     e96:	d1 40       	sbci	r29, 0x01	; 1
     e98:	21 2c       	mov	r2, r1
     e9a:	31 2c       	mov	r3, r1
     e9c:	d3 01       	movw	r26, r6
     e9e:	c2 01       	movw	r24, r4
     ea0:	84 0f       	add	r24, r20
     ea2:	95 1f       	adc	r25, r21
     ea4:	a6 1f       	adc	r26, r22
     ea6:	b7 1f       	adc	r27, r23
     ea8:	c1 5a       	subi	r28, 0xA1	; 161
     eaa:	de 4f       	sbci	r29, 0xFE	; 254
     eac:	88 83       	st	Y, r24
     eae:	99 83       	std	Y+1, r25	; 0x01
     eb0:	aa 83       	std	Y+2, r26	; 0x02
     eb2:	bb 83       	std	Y+3, r27	; 0x03
     eb4:	cf 55       	subi	r28, 0x5F	; 95
     eb6:	d1 40       	sbci	r29, 0x01	; 1
     eb8:	c1 5a       	subi	r28, 0xA1	; 161
     eba:	de 4f       	sbci	r29, 0xFE	; 254
     ebc:	08 81       	ld	r16, Y
     ebe:	19 81       	ldd	r17, Y+1	; 0x01
     ec0:	2a 81       	ldd	r18, Y+2	; 0x02
     ec2:	3b 81       	ldd	r19, Y+3	; 0x03
     ec4:	cf 55       	subi	r28, 0x5F	; 95
     ec6:	d1 40       	sbci	r29, 0x01	; 1
     ec8:	08 15       	cp	r16, r8
     eca:	19 05       	cpc	r17, r9
     ecc:	2a 05       	cpc	r18, r10
     ece:	3b 05       	cpc	r19, r11
     ed0:	0c f4       	brge	.+2      	; 0xed4 <__stack+0x5d5>
     ed2:	bf c0       	rjmp	.+382    	; 0x1052 <__stack+0x753>
     ed4:	c6 59       	subi	r28, 0x96	; 150
     ed6:	de 4f       	sbci	r29, 0xFE	; 254
     ed8:	08 81       	ld	r16, Y
     eda:	19 81       	ldd	r17, Y+1	; 0x01
     edc:	ca 56       	subi	r28, 0x6A	; 106
     ede:	d1 40       	sbci	r29, 0x01	; 1
     ee0:	02 0d       	add	r16, r2
     ee2:	13 1d       	adc	r17, r3
     ee4:	c3 5b       	subi	r28, 0xB3	; 179
     ee6:	de 4f       	sbci	r29, 0xFE	; 254
     ee8:	19 83       	std	Y+1, r17	; 0x01
     eea:	08 83       	st	Y, r16
     eec:	cd 54       	subi	r28, 0x4D	; 77
     eee:	d1 40       	sbci	r29, 0x01	; 1
     ef0:	01 ea       	ldi	r16, 0xA1	; 161
     ef2:	10 e0       	ldi	r17, 0x00	; 0
     ef4:	0c 0f       	add	r16, r28
     ef6:	1d 1f       	adc	r17, r29
     ef8:	c3 5b       	subi	r28, 0xB3	; 179
     efa:	de 4f       	sbci	r29, 0xFE	; 254
     efc:	28 81       	ld	r18, Y
     efe:	39 81       	ldd	r19, Y+1	; 0x01
     f00:	cd 54       	subi	r28, 0x4D	; 77
     f02:	d1 40       	sbci	r29, 0x01	; 1
     f04:	02 0f       	add	r16, r18
     f06:	13 1f       	adc	r17, r19
     f08:	f6 01       	movw	r30, r12
     f0a:	5e 2d       	mov	r21, r14
     f0c:	0e 94 41 18 	call	0x3082	; 0x3082 <__xload_4>
     f10:	0e 94 92 16 	call	0x2d24	; 0x2d24 <__floatsisf>
     f14:	d8 01       	movw	r26, r16
     f16:	6d 93       	st	X+, r22
     f18:	7d 93       	st	X+, r23
     f1a:	8d 93       	st	X+, r24
     f1c:	9c 93       	st	X, r25
     f1e:	13 97       	sbiw	r26, 0x03	; 3
     f20:	cb 59       	subi	r28, 0x9B	; 155
     f22:	de 4f       	sbci	r29, 0xFE	; 254
     f24:	f8 80       	ld	r15, Y
     f26:	c5 56       	subi	r28, 0x65	; 101
     f28:	d1 40       	sbci	r29, 0x01	; 1
     f2a:	cb 5b       	subi	r28, 0xBB	; 187
     f2c:	de 4f       	sbci	r29, 0xFE	; 254
     f2e:	f8 82       	st	Y, r15
     f30:	c5 54       	subi	r28, 0x45	; 69
     f32:	d1 40       	sbci	r29, 0x01	; 1
     f34:	c7 59       	subi	r28, 0x97	; 151
     f36:	de 4f       	sbci	r29, 0xFE	; 254
     f38:	f8 80       	ld	r15, Y
     f3a:	c9 56       	subi	r28, 0x69	; 105
     f3c:	d1 40       	sbci	r29, 0x01	; 1
     f3e:	ca 5b       	subi	r28, 0xBA	; 186
     f40:	de 4f       	sbci	r29, 0xFE	; 254
     f42:	f8 82       	st	Y, r15
     f44:	c6 54       	subi	r28, 0x46	; 70
     f46:	d1 40       	sbci	r29, 0x01	; 1
     f48:	c7 5b       	subi	r28, 0xB7	; 183
     f4a:	de 4f       	sbci	r29, 0xFE	; 254
     f4c:	18 82       	st	Y, r1
     f4e:	19 82       	std	Y+1, r1	; 0x01
     f50:	1a 82       	std	Y+2, r1	; 0x02
     f52:	1b 82       	std	Y+3, r1	; 0x03
     f54:	c9 54       	subi	r28, 0x49	; 73
     f56:	d1 40       	sbci	r29, 0x01	; 1
     f58:	00 e0       	ldi	r16, 0x00	; 0
     f5a:	10 e0       	ldi	r17, 0x00	; 0
     f5c:	41 2c       	mov	r4, r1
     f5e:	51 2c       	mov	r5, r1
     f60:	32 01       	movw	r6, r4
     f62:	c7 5b       	subi	r28, 0xB7	; 183
     f64:	de 4f       	sbci	r29, 0xFE	; 254
     f66:	48 81       	ld	r20, Y
     f68:	59 81       	ldd	r21, Y+1	; 0x01
     f6a:	6a 81       	ldd	r22, Y+2	; 0x02
     f6c:	7b 81       	ldd	r23, Y+3	; 0x03
     f6e:	c9 54       	subi	r28, 0x49	; 73
     f70:	d1 40       	sbci	r29, 0x01	; 1
     f72:	cf 5a       	subi	r28, 0xAF	; 175
     f74:	de 4f       	sbci	r29, 0xFE	; 254
     f76:	88 81       	ld	r24, Y
     f78:	99 81       	ldd	r25, Y+1	; 0x01
     f7a:	aa 81       	ldd	r26, Y+2	; 0x02
     f7c:	bb 81       	ldd	r27, Y+3	; 0x03
     f7e:	c1 55       	subi	r28, 0x51	; 81
     f80:	d1 40       	sbci	r29, 0x01	; 1
     f82:	84 17       	cp	r24, r20
     f84:	95 07       	cpc	r25, r21
     f86:	a6 07       	cpc	r26, r22
     f88:	b7 07       	cpc	r27, r23
     f8a:	0c f4       	brge	.+2      	; 0xf8e <__stack+0x68f>
     f8c:	43 c0       	rjmp	.+134    	; 0x1014 <__stack+0x715>
     f8e:	c3 5b       	subi	r28, 0xB3	; 179
     f90:	de 4f       	sbci	r29, 0xFE	; 254
     f92:	e8 81       	ld	r30, Y
     f94:	f9 81       	ldd	r31, Y+1	; 0x01
     f96:	cd 54       	subi	r28, 0x4D	; 77
     f98:	d1 40       	sbci	r29, 0x01	; 1
     f9a:	e0 0f       	add	r30, r16
     f9c:	f1 1f       	adc	r31, r17
     f9e:	21 ea       	ldi	r18, 0xA1	; 161
     fa0:	30 e0       	ldi	r19, 0x00	; 0
     fa2:	2c 0f       	add	r18, r28
     fa4:	3d 1f       	adc	r19, r29
     fa6:	e2 0f       	add	r30, r18
     fa8:	f3 1f       	adc	r31, r19
     faa:	cb 5b       	subi	r28, 0xBB	; 187
     fac:	de 4f       	sbci	r29, 0xFE	; 254
     fae:	a8 81       	ld	r26, Y
     fb0:	b9 81       	ldd	r27, Y+1	; 0x01
     fb2:	c5 54       	subi	r28, 0x45	; 69
     fb4:	d1 40       	sbci	r29, 0x01	; 1
     fb6:	2d 91       	ld	r18, X+
     fb8:	3d 91       	ld	r19, X+
     fba:	4d 91       	ld	r20, X+
     fbc:	5d 91       	ld	r21, X+
     fbe:	cb 5b       	subi	r28, 0xBB	; 187
     fc0:	de 4f       	sbci	r29, 0xFE	; 254
     fc2:	b9 83       	std	Y+1, r27	; 0x01
     fc4:	a8 83       	st	Y, r26
     fc6:	c5 54       	subi	r28, 0x45	; 69
     fc8:	d1 40       	sbci	r29, 0x01	; 1
     fca:	60 81       	ld	r22, Z
     fcc:	71 81       	ldd	r23, Z+1	; 0x01
     fce:	82 81       	ldd	r24, Z+2	; 0x02
     fd0:	93 81       	ldd	r25, Z+3	; 0x03
     fd2:	0e 94 c9 18 	call	0x3192	; 0x3192 <__mulsf3>
     fd6:	9b 01       	movw	r18, r22
     fd8:	ac 01       	movw	r20, r24
     fda:	c3 01       	movw	r24, r6
     fdc:	b2 01       	movw	r22, r4
     fde:	0e 94 8d 18 	call	0x311a	; 0x311a <__addsf3>
     fe2:	2b 01       	movw	r4, r22
     fe4:	3c 01       	movw	r6, r24
     fe6:	c7 5b       	subi	r28, 0xB7	; 183
     fe8:	de 4f       	sbci	r29, 0xFE	; 254
     fea:	28 81       	ld	r18, Y
     fec:	39 81       	ldd	r19, Y+1	; 0x01
     fee:	4a 81       	ldd	r20, Y+2	; 0x02
     ff0:	5b 81       	ldd	r21, Y+3	; 0x03
     ff2:	c9 54       	subi	r28, 0x49	; 73
     ff4:	d1 40       	sbci	r29, 0x01	; 1
     ff6:	2f 5f       	subi	r18, 0xFF	; 255
     ff8:	3f 4f       	sbci	r19, 0xFF	; 255
     ffa:	4f 4f       	sbci	r20, 0xFF	; 255
     ffc:	5f 4f       	sbci	r21, 0xFF	; 255
     ffe:	c7 5b       	subi	r28, 0xB7	; 183
    1000:	de 4f       	sbci	r29, 0xFE	; 254
    1002:	28 83       	st	Y, r18
    1004:	39 83       	std	Y+1, r19	; 0x01
    1006:	4a 83       	std	Y+2, r20	; 0x02
    1008:	5b 83       	std	Y+3, r21	; 0x03
    100a:	c9 54       	subi	r28, 0x49	; 73
    100c:	d1 40       	sbci	r29, 0x01	; 1
    100e:	04 50       	subi	r16, 0x04	; 4
    1010:	11 09       	sbc	r17, r1
    1012:	a7 cf       	rjmp	.-178    	; 0xf62 <__stack+0x663>
    1014:	c9 59       	subi	r28, 0x99	; 153
    1016:	de 4f       	sbci	r29, 0xFE	; 254
    1018:	e8 81       	ld	r30, Y
    101a:	f9 81       	ldd	r31, Y+1	; 0x01
    101c:	c7 56       	subi	r28, 0x67	; 103
    101e:	d1 40       	sbci	r29, 0x01	; 1
    1020:	e2 0d       	add	r30, r2
    1022:	f3 1d       	adc	r31, r3
    1024:	a1 e0       	ldi	r26, 0x01	; 1
    1026:	b0 e0       	ldi	r27, 0x00	; 0
    1028:	ac 0f       	add	r26, r28
    102a:	bd 1f       	adc	r27, r29
    102c:	ea 0f       	add	r30, r26
    102e:	fb 1f       	adc	r31, r27
    1030:	40 82       	st	Z, r4
    1032:	51 82       	std	Z+1, r5	; 0x01
    1034:	62 82       	std	Z+2, r6	; 0x02
    1036:	73 82       	std	Z+3, r7	; 0x03
    1038:	bf ef       	ldi	r27, 0xFF	; 255
    103a:	8b 1a       	sub	r8, r27
    103c:	9b 0a       	sbc	r9, r27
    103e:	ab 0a       	sbc	r10, r27
    1040:	bb 0a       	sbc	r11, r27
    1042:	e4 e0       	ldi	r30, 0x04	; 4
    1044:	2e 0e       	add	r2, r30
    1046:	31 1c       	adc	r3, r1
    1048:	f4 e0       	ldi	r31, 0x04	; 4
    104a:	cf 0e       	add	r12, r31
    104c:	d1 1c       	adc	r13, r1
    104e:	e1 1c       	adc	r14, r1
    1050:	33 cf       	rjmp	.-410    	; 0xeb8 <__stack+0x5b9>
    1052:	28 01       	movw	r4, r16
    1054:	39 01       	movw	r6, r18
    1056:	22 cc       	rjmp	.-1980   	; 0x89c <__DATA_REGION_LENGTH__+0x9c>
    1058:	cf 5b       	subi	r28, 0xBF	; 191
    105a:	de 4f       	sbci	r29, 0xFE	; 254
    105c:	28 81       	ld	r18, Y
    105e:	39 81       	ldd	r19, Y+1	; 0x01
    1060:	4a 81       	ldd	r20, Y+2	; 0x02
    1062:	5b 81       	ldd	r21, Y+3	; 0x03
    1064:	c1 54       	subi	r28, 0x41	; 65
    1066:	d1 40       	sbci	r29, 0x01	; 1
    1068:	28 51       	subi	r18, 0x18	; 24
    106a:	31 09       	sbc	r19, r1
    106c:	41 09       	sbc	r20, r1
    106e:	51 09       	sbc	r21, r1
    1070:	cf 5b       	subi	r28, 0xBF	; 191
    1072:	de 4f       	sbci	r29, 0xFE	; 254
    1074:	28 83       	st	Y, r18
    1076:	39 83       	std	Y+1, r19	; 0x01
    1078:	4a 83       	std	Y+2, r20	; 0x02
    107a:	5b 83       	std	Y+3, r21	; 0x03
    107c:	c1 54       	subi	r28, 0x41	; 65
    107e:	d1 40       	sbci	r29, 0x01	; 1
    1080:	c6 01       	movw	r24, r12
    1082:	88 0f       	add	r24, r24
    1084:	99 1f       	adc	r25, r25
    1086:	88 0f       	add	r24, r24
    1088:	99 1f       	adc	r25, r25
    108a:	26 01       	movw	r4, r12
    108c:	37 01       	movw	r6, r14
    108e:	20 e0       	ldi	r18, 0x00	; 0
    1090:	30 e0       	ldi	r19, 0x00	; 0
    1092:	24 50       	subi	r18, 0x04	; 4
    1094:	31 09       	sbc	r19, r1
    1096:	f9 01       	movw	r30, r18
    1098:	e8 0f       	add	r30, r24
    109a:	f9 1f       	adc	r31, r25
    109c:	61 ef       	ldi	r22, 0xF1	; 241
    109e:	70 e0       	ldi	r23, 0x00	; 0
    10a0:	6c 0f       	add	r22, r28
    10a2:	7d 1f       	adc	r23, r29
    10a4:	e6 0f       	add	r30, r22
    10a6:	f7 1f       	adc	r31, r23
    10a8:	44 81       	ldd	r20, Z+4	; 0x04
    10aa:	55 81       	ldd	r21, Z+5	; 0x05
    10ac:	66 81       	ldd	r22, Z+6	; 0x06
    10ae:	77 81       	ldd	r23, Z+7	; 0x07
    10b0:	45 2b       	or	r20, r21
    10b2:	46 2b       	or	r20, r22
    10b4:	47 2b       	or	r20, r23
    10b6:	09 f0       	breq	.+2      	; 0x10ba <__stack+0x7bb>
    10b8:	9e c0       	rjmp	.+316    	; 0x11f6 <__stack+0x8f7>
    10ba:	41 e0       	ldi	r20, 0x01	; 1
    10bc:	44 1a       	sub	r4, r20
    10be:	51 08       	sbc	r5, r1
    10c0:	61 08       	sbc	r6, r1
    10c2:	71 08       	sbc	r7, r1
    10c4:	cf 5b       	subi	r28, 0xBF	; 191
    10c6:	de 4f       	sbci	r29, 0xFE	; 254
    10c8:	48 81       	ld	r20, Y
    10ca:	59 81       	ldd	r21, Y+1	; 0x01
    10cc:	6a 81       	ldd	r22, Y+2	; 0x02
    10ce:	7b 81       	ldd	r23, Y+3	; 0x03
    10d0:	c1 54       	subi	r28, 0x41	; 65
    10d2:	d1 40       	sbci	r29, 0x01	; 1
    10d4:	48 51       	subi	r20, 0x18	; 24
    10d6:	51 09       	sbc	r21, r1
    10d8:	61 09       	sbc	r22, r1
    10da:	71 09       	sbc	r23, r1
    10dc:	cf 5b       	subi	r28, 0xBF	; 191
    10de:	de 4f       	sbci	r29, 0xFE	; 254
    10e0:	48 83       	st	Y, r20
    10e2:	59 83       	std	Y+1, r21	; 0x01
    10e4:	6a 83       	std	Y+2, r22	; 0x02
    10e6:	7b 83       	std	Y+3, r23	; 0x03
    10e8:	c1 54       	subi	r28, 0x41	; 65
    10ea:	d1 40       	sbci	r29, 0x01	; 1
    10ec:	d2 cf       	rjmp	.-92     	; 0x1092 <__stack+0x793>
    10ee:	cf 5b       	subi	r28, 0xBF	; 191
    10f0:	de 4f       	sbci	r29, 0xFE	; 254
    10f2:	48 81       	ld	r20, Y
    10f4:	59 81       	ldd	r21, Y+1	; 0x01
    10f6:	c1 54       	subi	r28, 0x41	; 65
    10f8:	d1 40       	sbci	r29, 0x01	; 1
    10fa:	51 95       	neg	r21
    10fc:	41 95       	neg	r20
    10fe:	51 09       	sbc	r21, r1
    1100:	c7 01       	movw	r24, r14
    1102:	b6 01       	movw	r22, r12
    1104:	0e 94 e6 15 	call	0x2bcc	; 0x2bcc <scalbnf>
    1108:	6b 01       	movw	r12, r22
    110a:	7c 01       	movw	r14, r24
    110c:	20 e0       	ldi	r18, 0x00	; 0
    110e:	30 e0       	ldi	r19, 0x00	; 0
    1110:	40 e8       	ldi	r20, 0x80	; 128
    1112:	5b e4       	ldi	r21, 0x4B	; 75
    1114:	0e 94 c0 18 	call	0x3180	; 0x3180 <__gesf2>
    1118:	87 fd       	sbrc	r24, 7
    111a:	57 c0       	rjmp	.+174    	; 0x11ca <__stack+0x8cb>
    111c:	20 e0       	ldi	r18, 0x00	; 0
    111e:	30 e0       	ldi	r19, 0x00	; 0
    1120:	40 e8       	ldi	r20, 0x80	; 128
    1122:	53 e3       	ldi	r21, 0x33	; 51
    1124:	c7 01       	movw	r24, r14
    1126:	b6 01       	movw	r22, r12
    1128:	0e 94 c9 18 	call	0x3192	; 0x3192 <__mulsf3>
    112c:	0e 94 93 18 	call	0x3126	; 0x3126 <__fixsfsi>
    1130:	0e 94 92 16 	call	0x2d24	; 0x2d24 <__floatsisf>
    1134:	4b 01       	movw	r8, r22
    1136:	5c 01       	movw	r10, r24
    1138:	01 ef       	ldi	r16, 0xF1	; 241
    113a:	10 e0       	ldi	r17, 0x00	; 0
    113c:	0c 0f       	add	r16, r28
    113e:	1d 1f       	adc	r17, r29
    1140:	c3 5b       	subi	r28, 0xB3	; 179
    1142:	de 4f       	sbci	r29, 0xFE	; 254
    1144:	88 81       	ld	r24, Y
    1146:	99 81       	ldd	r25, Y+1	; 0x01
    1148:	cd 54       	subi	r28, 0x4D	; 77
    114a:	d1 40       	sbci	r29, 0x01	; 1
    114c:	08 0f       	add	r16, r24
    114e:	19 1f       	adc	r17, r25
    1150:	20 e0       	ldi	r18, 0x00	; 0
    1152:	30 e0       	ldi	r19, 0x00	; 0
    1154:	40 e8       	ldi	r20, 0x80	; 128
    1156:	5b e4       	ldi	r21, 0x4B	; 75
    1158:	c5 01       	movw	r24, r10
    115a:	b4 01       	movw	r22, r8
    115c:	0e 94 c9 18 	call	0x3192	; 0x3192 <__mulsf3>
    1160:	9b 01       	movw	r18, r22
    1162:	ac 01       	movw	r20, r24
    1164:	c7 01       	movw	r24, r14
    1166:	b6 01       	movw	r22, r12
    1168:	0e 94 8c 18 	call	0x3118	; 0x3118 <__subsf3>
    116c:	0e 94 93 18 	call	0x3126	; 0x3126 <__fixsfsi>
    1170:	d8 01       	movw	r26, r16
    1172:	6d 93       	st	X+, r22
    1174:	7d 93       	st	X+, r23
    1176:	8d 93       	st	X+, r24
    1178:	9c 93       	st	X, r25
    117a:	13 97       	sbiw	r26, 0x03	; 3
    117c:	bf ef       	ldi	r27, 0xFF	; 255
    117e:	4b 1a       	sub	r4, r27
    1180:	5b 0a       	sbc	r5, r27
    1182:	6b 0a       	sbc	r6, r27
    1184:	7b 0a       	sbc	r7, r27
    1186:	cf 5b       	subi	r28, 0xBF	; 191
    1188:	de 4f       	sbci	r29, 0xFE	; 254
    118a:	08 81       	ld	r16, Y
    118c:	19 81       	ldd	r17, Y+1	; 0x01
    118e:	2a 81       	ldd	r18, Y+2	; 0x02
    1190:	3b 81       	ldd	r19, Y+3	; 0x03
    1192:	c1 54       	subi	r28, 0x41	; 65
    1194:	d1 40       	sbci	r29, 0x01	; 1
    1196:	08 5e       	subi	r16, 0xE8	; 232
    1198:	1f 4f       	sbci	r17, 0xFF	; 255
    119a:	2f 4f       	sbci	r18, 0xFF	; 255
    119c:	3f 4f       	sbci	r19, 0xFF	; 255
    119e:	cf 5b       	subi	r28, 0xBF	; 191
    11a0:	de 4f       	sbci	r29, 0xFE	; 254
    11a2:	08 83       	st	Y, r16
    11a4:	19 83       	std	Y+1, r17	; 0x01
    11a6:	2a 83       	std	Y+2, r18	; 0x02
    11a8:	3b 83       	std	Y+3, r19	; 0x03
    11aa:	c1 54       	subi	r28, 0x41	; 65
    11ac:	d1 40       	sbci	r29, 0x01	; 1
    11ae:	82 01       	movw	r16, r4
    11b0:	00 0f       	add	r16, r16
    11b2:	11 1f       	adc	r17, r17
    11b4:	00 0f       	add	r16, r16
    11b6:	11 1f       	adc	r17, r17
    11b8:	21 ef       	ldi	r18, 0xF1	; 241
    11ba:	30 e0       	ldi	r19, 0x00	; 0
    11bc:	2c 0f       	add	r18, r28
    11be:	3d 1f       	adc	r19, r29
    11c0:	02 0f       	add	r16, r18
    11c2:	13 1f       	adc	r17, r19
    11c4:	c5 01       	movw	r24, r10
    11c6:	b4 01       	movw	r22, r8
    11c8:	0e c0       	rjmp	.+28     	; 0x11e6 <__stack+0x8e7>
    11ca:	01 ef       	ldi	r16, 0xF1	; 241
    11cc:	10 e0       	ldi	r17, 0x00	; 0
    11ce:	0c 0f       	add	r16, r28
    11d0:	1d 1f       	adc	r17, r29
    11d2:	c3 5b       	subi	r28, 0xB3	; 179
    11d4:	de 4f       	sbci	r29, 0xFE	; 254
    11d6:	88 80       	ld	r8, Y
    11d8:	99 80       	ldd	r9, Y+1	; 0x01
    11da:	cd 54       	subi	r28, 0x4D	; 77
    11dc:	d1 40       	sbci	r29, 0x01	; 1
    11de:	08 0d       	add	r16, r8
    11e0:	19 1d       	adc	r17, r9
    11e2:	c7 01       	movw	r24, r14
    11e4:	b6 01       	movw	r22, r12
    11e6:	0e 94 93 18 	call	0x3126	; 0x3126 <__fixsfsi>
    11ea:	d8 01       	movw	r26, r16
    11ec:	6d 93       	st	X+, r22
    11ee:	7d 93       	st	X+, r23
    11f0:	8d 93       	st	X+, r24
    11f2:	9c 93       	st	X, r25
    11f4:	13 97       	sbiw	r26, 0x03	; 3
    11f6:	cf 5b       	subi	r28, 0xBF	; 191
    11f8:	de 4f       	sbci	r29, 0xFE	; 254
    11fa:	48 81       	ld	r20, Y
    11fc:	59 81       	ldd	r21, Y+1	; 0x01
    11fe:	c1 54       	subi	r28, 0x41	; 65
    1200:	d1 40       	sbci	r29, 0x01	; 1
    1202:	60 e0       	ldi	r22, 0x00	; 0
    1204:	70 e0       	ldi	r23, 0x00	; 0
    1206:	80 e8       	ldi	r24, 0x80	; 128
    1208:	9f e3       	ldi	r25, 0x3F	; 63
    120a:	0e 94 e6 15 	call	0x2bcc	; 0x2bcc <scalbnf>
    120e:	4b 01       	movw	r8, r22
    1210:	5c 01       	movw	r10, r24
    1212:	c1 5a       	subi	r28, 0xA1	; 161
    1214:	de 4f       	sbci	r29, 0xFE	; 254
    1216:	59 82       	std	Y+1, r5	; 0x01
    1218:	48 82       	st	Y, r4
    121a:	cf 55       	subi	r28, 0x5F	; 95
    121c:	d1 40       	sbci	r29, 0x01	; 1
    121e:	12 01       	movw	r2, r4
    1220:	22 0c       	add	r2, r2
    1222:	33 1c       	adc	r3, r3
    1224:	22 0c       	add	r2, r2
    1226:	33 1c       	adc	r3, r3
    1228:	73 01       	movw	r14, r6
    122a:	62 01       	movw	r12, r4
    122c:	00 e0       	ldi	r16, 0x00	; 0
    122e:	10 e0       	ldi	r17, 0x00	; 0
    1230:	f7 fc       	sbrc	r15, 7
    1232:	3c c0       	rjmp	.+120    	; 0x12ac <__stack+0x9ad>
    1234:	c8 01       	movw	r24, r16
    1236:	82 0d       	add	r24, r2
    1238:	93 1d       	adc	r25, r3
    123a:	e1 e0       	ldi	r30, 0x01	; 1
    123c:	f0 e0       	ldi	r31, 0x00	; 0
    123e:	ec 0f       	add	r30, r28
    1240:	fd 1f       	adc	r31, r29
    1242:	e8 0f       	add	r30, r24
    1244:	f9 1f       	adc	r31, r25
    1246:	cf 5b       	subi	r28, 0xBF	; 191
    1248:	de 4f       	sbci	r29, 0xFE	; 254
    124a:	f9 83       	std	Y+1, r31	; 0x01
    124c:	e8 83       	st	Y, r30
    124e:	c1 54       	subi	r28, 0x41	; 65
    1250:	d1 40       	sbci	r29, 0x01	; 1
    1252:	e1 ef       	ldi	r30, 0xF1	; 241
    1254:	f0 e0       	ldi	r31, 0x00	; 0
    1256:	ec 0f       	add	r30, r28
    1258:	fd 1f       	adc	r31, r29
    125a:	e8 0f       	add	r30, r24
    125c:	f9 1f       	adc	r31, r25
    125e:	60 81       	ld	r22, Z
    1260:	71 81       	ldd	r23, Z+1	; 0x01
    1262:	82 81       	ldd	r24, Z+2	; 0x02
    1264:	93 81       	ldd	r25, Z+3	; 0x03
    1266:	0e 94 92 16 	call	0x2d24	; 0x2d24 <__floatsisf>
    126a:	a5 01       	movw	r20, r10
    126c:	94 01       	movw	r18, r8
    126e:	0e 94 c9 18 	call	0x3192	; 0x3192 <__mulsf3>
    1272:	cf 5b       	subi	r28, 0xBF	; 191
    1274:	de 4f       	sbci	r29, 0xFE	; 254
    1276:	a8 81       	ld	r26, Y
    1278:	b9 81       	ldd	r27, Y+1	; 0x01
    127a:	c1 54       	subi	r28, 0x41	; 65
    127c:	d1 40       	sbci	r29, 0x01	; 1
    127e:	6d 93       	st	X+, r22
    1280:	7d 93       	st	X+, r23
    1282:	8d 93       	st	X+, r24
    1284:	9c 93       	st	X, r25
    1286:	13 97       	sbiw	r26, 0x03	; 3
    1288:	20 e0       	ldi	r18, 0x00	; 0
    128a:	30 e0       	ldi	r19, 0x00	; 0
    128c:	40 e8       	ldi	r20, 0x80	; 128
    128e:	53 e3       	ldi	r21, 0x33	; 51
    1290:	c5 01       	movw	r24, r10
    1292:	b4 01       	movw	r22, r8
    1294:	0e 94 c9 18 	call	0x3192	; 0x3192 <__mulsf3>
    1298:	4b 01       	movw	r8, r22
    129a:	5c 01       	movw	r10, r24
    129c:	b1 e0       	ldi	r27, 0x01	; 1
    129e:	cb 1a       	sub	r12, r27
    12a0:	d1 08       	sbc	r13, r1
    12a2:	e1 08       	sbc	r14, r1
    12a4:	f1 08       	sbc	r15, r1
    12a6:	04 50       	subi	r16, 0x04	; 4
    12a8:	11 09       	sbc	r17, r1
    12aa:	c2 cf       	rjmp	.-124    	; 0x1230 <__stack+0x931>
    12ac:	8e 01       	movw	r16, r28
    12ae:	0f 5a       	subi	r16, 0xAF	; 175
    12b0:	1f 4f       	sbci	r17, 0xFF	; 255
    12b2:	c3 5b       	subi	r28, 0xB3	; 179
    12b4:	de 4f       	sbci	r29, 0xFE	; 254
    12b6:	19 83       	std	Y+1, r17	; 0x01
    12b8:	08 83       	st	Y, r16
    12ba:	cd 54       	subi	r28, 0x4D	; 77
    12bc:	d1 40       	sbci	r29, 0x01	; 1
    12be:	cf 5b       	subi	r28, 0xBF	; 191
    12c0:	de 4f       	sbci	r29, 0xFE	; 254
    12c2:	18 82       	st	Y, r1
    12c4:	19 82       	std	Y+1, r1	; 0x01
    12c6:	1a 82       	std	Y+2, r1	; 0x02
    12c8:	1b 82       	std	Y+3, r1	; 0x03
    12ca:	c1 54       	subi	r28, 0x41	; 65
    12cc:	d1 40       	sbci	r29, 0x01	; 1
    12ce:	cf 5a       	subi	r28, 0xAF	; 175
    12d0:	de 4f       	sbci	r29, 0xFE	; 254
    12d2:	19 82       	std	Y+1, r1	; 0x01
    12d4:	18 82       	st	Y, r1
    12d6:	c1 55       	subi	r28, 0x51	; 81
    12d8:	d1 40       	sbci	r29, 0x01	; 1
    12da:	d3 01       	movw	r26, r6
    12dc:	c2 01       	movw	r24, r4
    12de:	cf 5b       	subi	r28, 0xBF	; 191
    12e0:	de 4f       	sbci	r29, 0xFE	; 254
    12e2:	88 80       	ld	r8, Y
    12e4:	99 80       	ldd	r9, Y+1	; 0x01
    12e6:	aa 80       	ldd	r10, Y+2	; 0x02
    12e8:	bb 80       	ldd	r11, Y+3	; 0x03
    12ea:	c1 54       	subi	r28, 0x41	; 65
    12ec:	d1 40       	sbci	r29, 0x01	; 1
    12ee:	88 19       	sub	r24, r8
    12f0:	99 09       	sbc	r25, r9
    12f2:	aa 09       	sbc	r26, r10
    12f4:	bb 09       	sbc	r27, r11
    12f6:	b7 fd       	sbrc	r27, 7
    12f8:	b2 c0       	rjmp	.+356    	; 0x145e <__stack+0xb5f>
    12fa:	77 eb       	ldi	r23, 0xB7	; 183
    12fc:	87 2e       	mov	r8, r23
    12fe:	74 e0       	ldi	r23, 0x04	; 4
    1300:	97 2e       	mov	r9, r23
    1302:	70 e0       	ldi	r23, 0x00	; 0
    1304:	a7 2e       	mov	r10, r23
    1306:	61 01       	movw	r12, r2
    1308:	cf 5a       	subi	r28, 0xAF	; 175
    130a:	de 4f       	sbci	r29, 0xFE	; 254
    130c:	e8 80       	ld	r14, Y
    130e:	f9 80       	ldd	r15, Y+1	; 0x01
    1310:	c1 55       	subi	r28, 0x51	; 81
    1312:	d1 40       	sbci	r29, 0x01	; 1
    1314:	ce 18       	sub	r12, r14
    1316:	df 08       	sbc	r13, r15
    1318:	cb 59       	subi	r28, 0x9B	; 155
    131a:	de 4f       	sbci	r29, 0xFE	; 254
    131c:	d9 82       	std	Y+1, r13	; 0x01
    131e:	c8 82       	st	Y, r12
    1320:	c5 56       	subi	r28, 0x65	; 101
    1322:	d1 40       	sbci	r29, 0x01	; 1
    1324:	00 e0       	ldi	r16, 0x00	; 0
    1326:	10 e0       	ldi	r17, 0x00	; 0
    1328:	c7 5a       	subi	r28, 0xA7	; 167
    132a:	de 4f       	sbci	r29, 0xFE	; 254
    132c:	18 82       	st	Y, r1
    132e:	19 82       	std	Y+1, r1	; 0x01
    1330:	1a 82       	std	Y+2, r1	; 0x02
    1332:	1b 82       	std	Y+3, r1	; 0x03
    1334:	c9 55       	subi	r28, 0x59	; 89
    1336:	d1 40       	sbci	r29, 0x01	; 1
    1338:	c1 2c       	mov	r12, r1
    133a:	d1 2c       	mov	r13, r1
    133c:	76 01       	movw	r14, r12
    133e:	cb 5a       	subi	r28, 0xAB	; 171
    1340:	de 4f       	sbci	r29, 0xFE	; 254
    1342:	68 81       	ld	r22, Y
    1344:	79 81       	ldd	r23, Y+1	; 0x01
    1346:	8a 81       	ldd	r24, Y+2	; 0x02
    1348:	9b 81       	ldd	r25, Y+3	; 0x03
    134a:	c5 55       	subi	r28, 0x55	; 85
    134c:	d1 40       	sbci	r29, 0x01	; 1
    134e:	6c 15       	cp	r22, r12
    1350:	7d 05       	cpc	r23, r13
    1352:	8e 05       	cpc	r24, r14
    1354:	9f 05       	cpc	r25, r15
    1356:	0c f4       	brge	.+2      	; 0x135a <__stack+0xa5b>
    1358:	47 c0       	rjmp	.+142    	; 0x13e8 <__stack+0xae9>
    135a:	cf 5b       	subi	r28, 0xBF	; 191
    135c:	de 4f       	sbci	r29, 0xFE	; 254
    135e:	88 81       	ld	r24, Y
    1360:	99 81       	ldd	r25, Y+1	; 0x01
    1362:	aa 81       	ldd	r26, Y+2	; 0x02
    1364:	bb 81       	ldd	r27, Y+3	; 0x03
    1366:	c1 54       	subi	r28, 0x41	; 65
    1368:	d1 40       	sbci	r29, 0x01	; 1
    136a:	8c 15       	cp	r24, r12
    136c:	9d 05       	cpc	r25, r13
    136e:	ae 05       	cpc	r26, r14
    1370:	bf 05       	cpc	r27, r15
    1372:	d4 f1       	brlt	.+116    	; 0x13e8 <__stack+0xae9>
    1374:	cb 59       	subi	r28, 0x9B	; 155
    1376:	de 4f       	sbci	r29, 0xFE	; 254
    1378:	a8 81       	ld	r26, Y
    137a:	b9 81       	ldd	r27, Y+1	; 0x01
    137c:	c5 56       	subi	r28, 0x65	; 101
    137e:	d1 40       	sbci	r29, 0x01	; 1
    1380:	a0 0f       	add	r26, r16
    1382:	b1 1f       	adc	r27, r17
    1384:	21 e0       	ldi	r18, 0x01	; 1
    1386:	30 e0       	ldi	r19, 0x00	; 0
    1388:	2c 0f       	add	r18, r28
    138a:	3d 1f       	adc	r19, r29
    138c:	a2 0f       	add	r26, r18
    138e:	b3 1f       	adc	r27, r19
    1390:	f4 01       	movw	r30, r8
    1392:	5a 2d       	mov	r21, r10
    1394:	0e 94 41 18 	call	0x3082	; 0x3082 <__xload_4>
    1398:	9b 01       	movw	r18, r22
    139a:	ac 01       	movw	r20, r24
    139c:	6d 91       	ld	r22, X+
    139e:	7d 91       	ld	r23, X+
    13a0:	8d 91       	ld	r24, X+
    13a2:	9c 91       	ld	r25, X
    13a4:	0e 94 c9 18 	call	0x3192	; 0x3192 <__mulsf3>
    13a8:	9b 01       	movw	r18, r22
    13aa:	ac 01       	movw	r20, r24
    13ac:	c7 5a       	subi	r28, 0xA7	; 167
    13ae:	de 4f       	sbci	r29, 0xFE	; 254
    13b0:	68 81       	ld	r22, Y
    13b2:	79 81       	ldd	r23, Y+1	; 0x01
    13b4:	8a 81       	ldd	r24, Y+2	; 0x02
    13b6:	9b 81       	ldd	r25, Y+3	; 0x03
    13b8:	c9 55       	subi	r28, 0x59	; 89
    13ba:	d1 40       	sbci	r29, 0x01	; 1
    13bc:	0e 94 8d 18 	call	0x311a	; 0x311a <__addsf3>
    13c0:	c7 5a       	subi	r28, 0xA7	; 167
    13c2:	de 4f       	sbci	r29, 0xFE	; 254
    13c4:	68 83       	st	Y, r22
    13c6:	79 83       	std	Y+1, r23	; 0x01
    13c8:	8a 83       	std	Y+2, r24	; 0x02
    13ca:	9b 83       	std	Y+3, r25	; 0x03
    13cc:	c9 55       	subi	r28, 0x59	; 89
    13ce:	d1 40       	sbci	r29, 0x01	; 1
    13d0:	3f ef       	ldi	r19, 0xFF	; 255
    13d2:	c3 1a       	sub	r12, r19
    13d4:	d3 0a       	sbc	r13, r19
    13d6:	e3 0a       	sbc	r14, r19
    13d8:	f3 0a       	sbc	r15, r19
    13da:	44 e0       	ldi	r20, 0x04	; 4
    13dc:	84 0e       	add	r8, r20
    13de:	91 1c       	adc	r9, r1
    13e0:	a1 1c       	adc	r10, r1
    13e2:	0c 5f       	subi	r16, 0xFC	; 252
    13e4:	1f 4f       	sbci	r17, 0xFF	; 255
    13e6:	ab cf       	rjmp	.-170    	; 0x133e <__stack+0xa3f>
    13e8:	c3 5b       	subi	r28, 0xB3	; 179
    13ea:	de 4f       	sbci	r29, 0xFE	; 254
    13ec:	a8 81       	ld	r26, Y
    13ee:	b9 81       	ldd	r27, Y+1	; 0x01
    13f0:	cd 54       	subi	r28, 0x4D	; 77
    13f2:	d1 40       	sbci	r29, 0x01	; 1
    13f4:	c7 5a       	subi	r28, 0xA7	; 167
    13f6:	de 4f       	sbci	r29, 0xFE	; 254
    13f8:	88 80       	ld	r8, Y
    13fa:	99 80       	ldd	r9, Y+1	; 0x01
    13fc:	aa 80       	ldd	r10, Y+2	; 0x02
    13fe:	bb 80       	ldd	r11, Y+3	; 0x03
    1400:	c9 55       	subi	r28, 0x59	; 89
    1402:	d1 40       	sbci	r29, 0x01	; 1
    1404:	8d 92       	st	X+, r8
    1406:	9d 92       	st	X+, r9
    1408:	ad 92       	st	X+, r10
    140a:	bd 92       	st	X+, r11
    140c:	c3 5b       	subi	r28, 0xB3	; 179
    140e:	de 4f       	sbci	r29, 0xFE	; 254
    1410:	b9 83       	std	Y+1, r27	; 0x01
    1412:	a8 83       	st	Y, r26
    1414:	cd 54       	subi	r28, 0x4D	; 77
    1416:	d1 40       	sbci	r29, 0x01	; 1
    1418:	cf 5a       	subi	r28, 0xAF	; 175
    141a:	de 4f       	sbci	r29, 0xFE	; 254
    141c:	08 81       	ld	r16, Y
    141e:	19 81       	ldd	r17, Y+1	; 0x01
    1420:	c1 55       	subi	r28, 0x51	; 81
    1422:	d1 40       	sbci	r29, 0x01	; 1
    1424:	0c 5f       	subi	r16, 0xFC	; 252
    1426:	1f 4f       	sbci	r17, 0xFF	; 255
    1428:	cf 5a       	subi	r28, 0xAF	; 175
    142a:	de 4f       	sbci	r29, 0xFE	; 254
    142c:	19 83       	std	Y+1, r17	; 0x01
    142e:	08 83       	st	Y, r16
    1430:	c1 55       	subi	r28, 0x51	; 81
    1432:	d1 40       	sbci	r29, 0x01	; 1
    1434:	cf 5b       	subi	r28, 0xBF	; 191
    1436:	de 4f       	sbci	r29, 0xFE	; 254
    1438:	28 81       	ld	r18, Y
    143a:	39 81       	ldd	r19, Y+1	; 0x01
    143c:	4a 81       	ldd	r20, Y+2	; 0x02
    143e:	5b 81       	ldd	r21, Y+3	; 0x03
    1440:	c1 54       	subi	r28, 0x41	; 65
    1442:	d1 40       	sbci	r29, 0x01	; 1
    1444:	2f 5f       	subi	r18, 0xFF	; 255
    1446:	3f 4f       	sbci	r19, 0xFF	; 255
    1448:	4f 4f       	sbci	r20, 0xFF	; 255
    144a:	5f 4f       	sbci	r21, 0xFF	; 255
    144c:	cf 5b       	subi	r28, 0xBF	; 191
    144e:	de 4f       	sbci	r29, 0xFE	; 254
    1450:	28 83       	st	Y, r18
    1452:	39 83       	std	Y+1, r19	; 0x01
    1454:	4a 83       	std	Y+2, r20	; 0x02
    1456:	5b 83       	std	Y+3, r21	; 0x03
    1458:	c1 54       	subi	r28, 0x41	; 65
    145a:	d1 40       	sbci	r29, 0x01	; 1
    145c:	3e cf       	rjmp	.-388    	; 0x12da <__stack+0x9db>
    145e:	cd 59       	subi	r28, 0x9D	; 157
    1460:	de 4f       	sbci	r29, 0xFE	; 254
    1462:	08 81       	ld	r16, Y
    1464:	19 81       	ldd	r17, Y+1	; 0x01
    1466:	c3 56       	subi	r28, 0x63	; 99
    1468:	d1 40       	sbci	r29, 0x01	; 1
    146a:	03 30       	cpi	r16, 0x03	; 3
    146c:	11 05       	cpc	r17, r1
    146e:	74 f4       	brge	.+28     	; 0x148c <__stack+0xb8d>
    1470:	01 30       	cpi	r16, 0x01	; 1
    1472:	11 05       	cpc	r17, r1
    1474:	0c f0       	brlt	.+2      	; 0x1478 <__stack+0xb79>
    1476:	48 c0       	rjmp	.+144    	; 0x1508 <__stack+0xc09>
    1478:	01 15       	cp	r16, r1
    147a:	11 05       	cpc	r17, r1
    147c:	09 f0       	breq	.+2      	; 0x1480 <__stack+0xb81>
    147e:	41 c2       	rjmp	.+1154   	; 0x1902 <__stack+0x1003>
    1480:	00 e0       	ldi	r16, 0x00	; 0
    1482:	10 e0       	ldi	r17, 0x00	; 0
    1484:	60 e0       	ldi	r22, 0x00	; 0
    1486:	70 e0       	ldi	r23, 0x00	; 0
    1488:	cb 01       	movw	r24, r22
    148a:	46 c0       	rjmp	.+140    	; 0x1518 <__stack+0xc19>
    148c:	cd 59       	subi	r28, 0x9D	; 157
    148e:	de 4f       	sbci	r29, 0xFE	; 254
    1490:	08 81       	ld	r16, Y
    1492:	19 81       	ldd	r17, Y+1	; 0x01
    1494:	c3 56       	subi	r28, 0x63	; 99
    1496:	d1 40       	sbci	r29, 0x01	; 1
    1498:	03 30       	cpi	r16, 0x03	; 3
    149a:	11 05       	cpc	r17, r1
    149c:	09 f0       	breq	.+2      	; 0x14a0 <__stack+0xba1>
    149e:	31 c2       	rjmp	.+1122   	; 0x1902 <__stack+0x1003>
    14a0:	51 e5       	ldi	r21, 0x51	; 81
    14a2:	85 2e       	mov	r8, r21
    14a4:	91 2c       	mov	r9, r1
    14a6:	8c 0e       	add	r8, r28
    14a8:	9d 1e       	adc	r9, r29
    14aa:	82 0c       	add	r8, r2
    14ac:	93 1c       	adc	r9, r3
    14ae:	cf 5b       	subi	r28, 0xBF	; 191
    14b0:	de 4f       	sbci	r29, 0xFE	; 254
    14b2:	99 82       	std	Y+1, r9	; 0x01
    14b4:	88 82       	st	Y, r8
    14b6:	c1 54       	subi	r28, 0x41	; 65
    14b8:	d1 40       	sbci	r29, 0x01	; 1
    14ba:	14 01       	movw	r2, r8
    14bc:	2c ef       	ldi	r18, 0xFC	; 252
    14be:	c1 5a       	subi	r28, 0xA1	; 161
    14c0:	de 4f       	sbci	r29, 0xFE	; 254
    14c2:	08 81       	ld	r16, Y
    14c4:	19 81       	ldd	r17, Y+1	; 0x01
    14c6:	cf 55       	subi	r28, 0x5F	; 95
    14c8:	d1 40       	sbci	r29, 0x01	; 1
    14ca:	20 03       	mulsu	r18, r16
    14cc:	40 01       	movw	r8, r0
    14ce:	21 9f       	mul	r18, r17
    14d0:	90 0c       	add	r9, r0
    14d2:	11 24       	eor	r1, r1
    14d4:	cd 59       	subi	r28, 0x9D	; 157
    14d6:	de 4f       	sbci	r29, 0xFE	; 254
    14d8:	99 82       	std	Y+1, r9	; 0x01
    14da:	88 82       	st	Y, r8
    14dc:	c3 56       	subi	r28, 0x63	; 99
    14de:	d1 40       	sbci	r29, 0x01	; 1
    14e0:	d3 01       	movw	r26, r6
    14e2:	c2 01       	movw	r24, r4
    14e4:	01 97       	sbiw	r24, 0x01	; 1
    14e6:	a1 09       	sbc	r26, r1
    14e8:	b1 09       	sbc	r27, r1
    14ea:	5c 01       	movw	r10, r24
    14ec:	aa 0c       	add	r10, r10
    14ee:	bb 1c       	adc	r11, r11
    14f0:	aa 0c       	add	r10, r10
    14f2:	bb 1c       	adc	r11, r11
    14f4:	c7 5a       	subi	r28, 0xA7	; 167
    14f6:	de 4f       	sbci	r29, 0xFE	; 254
    14f8:	b9 82       	std	Y+1, r11	; 0x01
    14fa:	a8 82       	st	Y, r10
    14fc:	c9 55       	subi	r28, 0x59	; 89
    14fe:	d1 40       	sbci	r29, 0x01	; 1
    1500:	81 01       	movw	r16, r2
    1502:	73 01       	movw	r14, r6
    1504:	62 01       	movw	r12, r4
    1506:	b0 c0       	rjmp	.+352    	; 0x1668 <__stack+0xd69>
    1508:	73 01       	movw	r14, r6
    150a:	62 01       	movw	r12, r4
    150c:	00 e0       	ldi	r16, 0x00	; 0
    150e:	10 e0       	ldi	r17, 0x00	; 0
    1510:	60 e0       	ldi	r22, 0x00	; 0
    1512:	70 e0       	ldi	r23, 0x00	; 0
    1514:	cb 01       	movw	r24, r22
    1516:	35 c0       	rjmp	.+106    	; 0x1582 <__stack+0xc83>
    1518:	77 fc       	sbrc	r7, 7
    151a:	18 c0       	rjmp	.+48     	; 0x154c <__stack+0xc4d>
    151c:	f1 01       	movw	r30, r2
    151e:	e0 0f       	add	r30, r16
    1520:	f1 1f       	adc	r31, r17
    1522:	41 e5       	ldi	r20, 0x51	; 81
    1524:	c4 2e       	mov	r12, r20
    1526:	d1 2c       	mov	r13, r1
    1528:	cc 0e       	add	r12, r28
    152a:	dd 1e       	adc	r13, r29
    152c:	ec 0d       	add	r30, r12
    152e:	fd 1d       	adc	r31, r13
    1530:	20 81       	ld	r18, Z
    1532:	31 81       	ldd	r19, Z+1	; 0x01
    1534:	42 81       	ldd	r20, Z+2	; 0x02
    1536:	53 81       	ldd	r21, Z+3	; 0x03
    1538:	0e 94 8d 18 	call	0x311a	; 0x311a <__addsf3>
    153c:	21 e0       	ldi	r18, 0x01	; 1
    153e:	42 1a       	sub	r4, r18
    1540:	51 08       	sbc	r5, r1
    1542:	61 08       	sbc	r6, r1
    1544:	71 08       	sbc	r7, r1
    1546:	04 50       	subi	r16, 0x04	; 4
    1548:	11 09       	sbc	r17, r1
    154a:	e6 cf       	rjmp	.-52     	; 0x1518 <__stack+0xc19>
    154c:	cb 5b       	subi	r28, 0xBB	; 187
    154e:	de 4f       	sbci	r29, 0xFE	; 254
    1550:	88 80       	ld	r8, Y
    1552:	99 80       	ldd	r9, Y+1	; 0x01
    1554:	aa 80       	ldd	r10, Y+2	; 0x02
    1556:	bb 80       	ldd	r11, Y+3	; 0x03
    1558:	c5 54       	subi	r28, 0x45	; 69
    155a:	d1 40       	sbci	r29, 0x01	; 1
    155c:	dc 01       	movw	r26, r24
    155e:	cb 01       	movw	r24, r22
    1560:	81 14       	cp	r8, r1
    1562:	91 04       	cpc	r9, r1
    1564:	a1 04       	cpc	r10, r1
    1566:	b1 04       	cpc	r11, r1
    1568:	09 f0       	breq	.+2      	; 0x156c <__stack+0xc6d>
    156a:	b0 58       	subi	r27, 0x80	; 128
    156c:	c3 5a       	subi	r28, 0xA3	; 163
    156e:	de 4f       	sbci	r29, 0xFE	; 254
    1570:	e8 81       	ld	r30, Y
    1572:	f9 81       	ldd	r31, Y+1	; 0x01
    1574:	cd 55       	subi	r28, 0x5D	; 93
    1576:	d1 40       	sbci	r29, 0x01	; 1
    1578:	80 83       	st	Z, r24
    157a:	91 83       	std	Z+1, r25	; 0x01
    157c:	a2 83       	std	Z+2, r26	; 0x02
    157e:	b3 83       	std	Z+3, r27	; 0x03
    1580:	c0 c1       	rjmp	.+896    	; 0x1902 <__stack+0x1003>
    1582:	f7 fc       	sbrc	r15, 7
    1584:	18 c0       	rjmp	.+48     	; 0x15b6 <__stack+0xcb7>
    1586:	f1 01       	movw	r30, r2
    1588:	e0 0f       	add	r30, r16
    158a:	f1 1f       	adc	r31, r17
    158c:	31 e5       	ldi	r19, 0x51	; 81
    158e:	83 2e       	mov	r8, r19
    1590:	91 2c       	mov	r9, r1
    1592:	8c 0e       	add	r8, r28
    1594:	9d 1e       	adc	r9, r29
    1596:	e8 0d       	add	r30, r8
    1598:	f9 1d       	adc	r31, r9
    159a:	20 81       	ld	r18, Z
    159c:	31 81       	ldd	r19, Z+1	; 0x01
    159e:	42 81       	ldd	r20, Z+2	; 0x02
    15a0:	53 81       	ldd	r21, Z+3	; 0x03
    15a2:	0e 94 8d 18 	call	0x311a	; 0x311a <__addsf3>
    15a6:	21 e0       	ldi	r18, 0x01	; 1
    15a8:	c2 1a       	sub	r12, r18
    15aa:	d1 08       	sbc	r13, r1
    15ac:	e1 08       	sbc	r14, r1
    15ae:	f1 08       	sbc	r15, r1
    15b0:	04 50       	subi	r16, 0x04	; 4
    15b2:	11 09       	sbc	r17, r1
    15b4:	e6 cf       	rjmp	.-52     	; 0x1582 <__stack+0xc83>
    15b6:	cb 5b       	subi	r28, 0xBB	; 187
    15b8:	de 4f       	sbci	r29, 0xFE	; 254
    15ba:	88 80       	ld	r8, Y
    15bc:	99 80       	ldd	r9, Y+1	; 0x01
    15be:	aa 80       	ldd	r10, Y+2	; 0x02
    15c0:	bb 80       	ldd	r11, Y+3	; 0x03
    15c2:	c5 54       	subi	r28, 0x45	; 69
    15c4:	d1 40       	sbci	r29, 0x01	; 1
    15c6:	8b 01       	movw	r16, r22
    15c8:	9c 01       	movw	r18, r24
    15ca:	89 28       	or	r8, r9
    15cc:	8a 28       	or	r8, r10
    15ce:	8b 28       	or	r8, r11
    15d0:	09 f0       	breq	.+2      	; 0x15d4 <__stack+0xcd5>
    15d2:	30 58       	subi	r19, 0x80	; 128
    15d4:	c3 5a       	subi	r28, 0xA3	; 163
    15d6:	de 4f       	sbci	r29, 0xFE	; 254
    15d8:	a8 81       	ld	r26, Y
    15da:	b9 81       	ldd	r27, Y+1	; 0x01
    15dc:	cd 55       	subi	r28, 0x5D	; 93
    15de:	d1 40       	sbci	r29, 0x01	; 1
    15e0:	0d 93       	st	X+, r16
    15e2:	1d 93       	st	X+, r17
    15e4:	2d 93       	st	X+, r18
    15e6:	3c 93       	st	X, r19
    15e8:	13 97       	sbiw	r26, 0x03	; 3
    15ea:	9b 01       	movw	r18, r22
    15ec:	ac 01       	movw	r20, r24
    15ee:	8e 01       	movw	r16, r28
    15f0:	0f 5a       	subi	r16, 0xAF	; 175
    15f2:	1f 4f       	sbci	r17, 0xFF	; 255
    15f4:	f8 01       	movw	r30, r16
    15f6:	61 91       	ld	r22, Z+
    15f8:	71 91       	ld	r23, Z+
    15fa:	81 91       	ld	r24, Z+
    15fc:	91 91       	ld	r25, Z+
    15fe:	8f 01       	movw	r16, r30
    1600:	0e 94 8c 18 	call	0x3118	; 0x3118 <__subsf3>
    1604:	c1 2c       	mov	r12, r1
    1606:	d1 2c       	mov	r13, r1
    1608:	76 01       	movw	r14, r12
    160a:	c3 94       	inc	r12
    160c:	4c 14       	cp	r4, r12
    160e:	5d 04       	cpc	r5, r13
    1610:	6e 04       	cpc	r6, r14
    1612:	7f 04       	cpc	r7, r15
    1614:	74 f0       	brlt	.+28     	; 0x1632 <__stack+0xd33>
    1616:	d8 01       	movw	r26, r16
    1618:	2d 91       	ld	r18, X+
    161a:	3d 91       	ld	r19, X+
    161c:	4d 91       	ld	r20, X+
    161e:	5d 91       	ld	r21, X+
    1620:	8d 01       	movw	r16, r26
    1622:	0e 94 8d 18 	call	0x311a	; 0x311a <__addsf3>
    1626:	bf ef       	ldi	r27, 0xFF	; 255
    1628:	cb 1a       	sub	r12, r27
    162a:	db 0a       	sbc	r13, r27
    162c:	eb 0a       	sbc	r14, r27
    162e:	fb 0a       	sbc	r15, r27
    1630:	ed cf       	rjmp	.-38     	; 0x160c <__stack+0xd0d>
    1632:	cb 5b       	subi	r28, 0xBB	; 187
    1634:	de 4f       	sbci	r29, 0xFE	; 254
    1636:	88 80       	ld	r8, Y
    1638:	99 80       	ldd	r9, Y+1	; 0x01
    163a:	aa 80       	ldd	r10, Y+2	; 0x02
    163c:	bb 80       	ldd	r11, Y+3	; 0x03
    163e:	c5 54       	subi	r28, 0x45	; 69
    1640:	d1 40       	sbci	r29, 0x01	; 1
    1642:	dc 01       	movw	r26, r24
    1644:	cb 01       	movw	r24, r22
    1646:	81 14       	cp	r8, r1
    1648:	91 04       	cpc	r9, r1
    164a:	a1 04       	cpc	r10, r1
    164c:	b1 04       	cpc	r11, r1
    164e:	09 f0       	breq	.+2      	; 0x1652 <__stack+0xd53>
    1650:	b0 58       	subi	r27, 0x80	; 128
    1652:	c3 5a       	subi	r28, 0xA3	; 163
    1654:	de 4f       	sbci	r29, 0xFE	; 254
    1656:	e8 81       	ld	r30, Y
    1658:	f9 81       	ldd	r31, Y+1	; 0x01
    165a:	cd 55       	subi	r28, 0x5D	; 93
    165c:	d1 40       	sbci	r29, 0x01	; 1
    165e:	84 83       	std	Z+4, r24	; 0x04
    1660:	95 83       	std	Z+5, r25	; 0x05
    1662:	a6 83       	std	Z+6, r26	; 0x06
    1664:	b7 83       	std	Z+7, r27	; 0x07
    1666:	4d c1       	rjmp	.+666    	; 0x1902 <__stack+0x1003>
    1668:	1c 14       	cp	r1, r12
    166a:	1d 04       	cpc	r1, r13
    166c:	1e 04       	cpc	r1, r14
    166e:	1f 04       	cpc	r1, r15
    1670:	0c f0       	brlt	.+2      	; 0x1674 <__stack+0xd75>
    1672:	6d c0       	rjmp	.+218    	; 0x174e <__stack+0xe4f>
    1674:	f1 e0       	ldi	r31, 0x01	; 1
    1676:	cf 1a       	sub	r12, r31
    1678:	d1 08       	sbc	r13, r1
    167a:	e1 08       	sbc	r14, r1
    167c:	f1 08       	sbc	r15, r1
    167e:	cd 59       	subi	r28, 0x9D	; 157
    1680:	de 4f       	sbci	r29, 0xFE	; 254
    1682:	88 81       	ld	r24, Y
    1684:	99 81       	ldd	r25, Y+1	; 0x01
    1686:	c3 56       	subi	r28, 0x63	; 99
    1688:	d1 40       	sbci	r29, 0x01	; 1
    168a:	80 0f       	add	r24, r16
    168c:	91 1f       	adc	r25, r17
    168e:	c7 5a       	subi	r28, 0xA7	; 167
    1690:	de 4f       	sbci	r29, 0xFE	; 254
    1692:	88 80       	ld	r8, Y
    1694:	99 80       	ldd	r9, Y+1	; 0x01
    1696:	c9 55       	subi	r28, 0x59	; 89
    1698:	d1 40       	sbci	r29, 0x01	; 1
    169a:	88 0e       	add	r8, r24
    169c:	99 1e       	adc	r9, r25
    169e:	cf 5a       	subi	r28, 0xAF	; 175
    16a0:	de 4f       	sbci	r29, 0xFE	; 254
    16a2:	99 82       	std	Y+1, r9	; 0x01
    16a4:	88 82       	st	Y, r8
    16a6:	c1 55       	subi	r28, 0x51	; 81
    16a8:	d1 40       	sbci	r29, 0x01	; 1
    16aa:	d4 01       	movw	r26, r8
    16ac:	8d 90       	ld	r8, X+
    16ae:	9d 90       	ld	r9, X+
    16b0:	ad 90       	ld	r10, X+
    16b2:	bc 90       	ld	r11, X
    16b4:	cb 5a       	subi	r28, 0xAB	; 171
    16b6:	de 4f       	sbci	r29, 0xFE	; 254
    16b8:	88 82       	st	Y, r8
    16ba:	99 82       	std	Y+1, r9	; 0x01
    16bc:	aa 82       	std	Y+2, r10	; 0x02
    16be:	bb 82       	std	Y+3, r11	; 0x03
    16c0:	c5 55       	subi	r28, 0x55	; 85
    16c2:	d1 40       	sbci	r29, 0x01	; 1
    16c4:	f8 01       	movw	r30, r16
    16c6:	80 80       	ld	r8, Z
    16c8:	91 80       	ldd	r9, Z+1	; 0x01
    16ca:	a2 80       	ldd	r10, Z+2	; 0x02
    16cc:	b3 80       	ldd	r11, Z+3	; 0x03
    16ce:	a5 01       	movw	r20, r10
    16d0:	94 01       	movw	r18, r8
    16d2:	cb 5a       	subi	r28, 0xAB	; 171
    16d4:	de 4f       	sbci	r29, 0xFE	; 254
    16d6:	68 81       	ld	r22, Y
    16d8:	79 81       	ldd	r23, Y+1	; 0x01
    16da:	8a 81       	ldd	r24, Y+2	; 0x02
    16dc:	9b 81       	ldd	r25, Y+3	; 0x03
    16de:	c5 55       	subi	r28, 0x55	; 85
    16e0:	d1 40       	sbci	r29, 0x01	; 1
    16e2:	0e 94 8d 18 	call	0x311a	; 0x311a <__addsf3>
    16e6:	c3 5b       	subi	r28, 0xB3	; 179
    16e8:	de 4f       	sbci	r29, 0xFE	; 254
    16ea:	68 83       	st	Y, r22
    16ec:	79 83       	std	Y+1, r23	; 0x01
    16ee:	8a 83       	std	Y+2, r24	; 0x02
    16f0:	9b 83       	std	Y+3, r25	; 0x03
    16f2:	cd 54       	subi	r28, 0x4D	; 77
    16f4:	d1 40       	sbci	r29, 0x01	; 1
    16f6:	9b 01       	movw	r18, r22
    16f8:	ac 01       	movw	r20, r24
    16fa:	cb 5a       	subi	r28, 0xAB	; 171
    16fc:	de 4f       	sbci	r29, 0xFE	; 254
    16fe:	68 81       	ld	r22, Y
    1700:	79 81       	ldd	r23, Y+1	; 0x01
    1702:	8a 81       	ldd	r24, Y+2	; 0x02
    1704:	9b 81       	ldd	r25, Y+3	; 0x03
    1706:	c5 55       	subi	r28, 0x55	; 85
    1708:	d1 40       	sbci	r29, 0x01	; 1
    170a:	0e 94 8c 18 	call	0x3118	; 0x3118 <__subsf3>
    170e:	a5 01       	movw	r20, r10
    1710:	94 01       	movw	r18, r8
    1712:	0e 94 8d 18 	call	0x311a	; 0x311a <__addsf3>
    1716:	d8 01       	movw	r26, r16
    1718:	6d 93       	st	X+, r22
    171a:	7d 93       	st	X+, r23
    171c:	8d 93       	st	X+, r24
    171e:	9c 93       	st	X, r25
    1720:	13 97       	sbiw	r26, 0x03	; 3
    1722:	c3 5b       	subi	r28, 0xB3	; 179
    1724:	de 4f       	sbci	r29, 0xFE	; 254
    1726:	88 80       	ld	r8, Y
    1728:	99 80       	ldd	r9, Y+1	; 0x01
    172a:	aa 80       	ldd	r10, Y+2	; 0x02
    172c:	bb 80       	ldd	r11, Y+3	; 0x03
    172e:	cd 54       	subi	r28, 0x4D	; 77
    1730:	d1 40       	sbci	r29, 0x01	; 1
    1732:	cf 5a       	subi	r28, 0xAF	; 175
    1734:	de 4f       	sbci	r29, 0xFE	; 254
    1736:	a8 81       	ld	r26, Y
    1738:	b9 81       	ldd	r27, Y+1	; 0x01
    173a:	c1 55       	subi	r28, 0x51	; 81
    173c:	d1 40       	sbci	r29, 0x01	; 1
    173e:	8d 92       	st	X+, r8
    1740:	9d 92       	st	X+, r9
    1742:	ad 92       	st	X+, r10
    1744:	bc 92       	st	X, r11
    1746:	13 97       	sbiw	r26, 0x03	; 3
    1748:	04 50       	subi	r16, 0x04	; 4
    174a:	11 09       	sbc	r17, r1
    174c:	8d cf       	rjmp	.-230    	; 0x1668 <__stack+0xd69>
    174e:	73 01       	movw	r14, r6
    1750:	62 01       	movw	r12, r4
    1752:	e2 e0       	ldi	r30, 0x02	; 2
    1754:	ce 16       	cp	r12, r30
    1756:	d1 04       	cpc	r13, r1
    1758:	e1 04       	cpc	r14, r1
    175a:	f1 04       	cpc	r15, r1
    175c:	0c f4       	brge	.+2      	; 0x1760 <__stack+0xe61>
    175e:	63 c0       	rjmp	.+198    	; 0x1826 <__stack+0xf27>
    1760:	b1 e0       	ldi	r27, 0x01	; 1
    1762:	cb 1a       	sub	r12, r27
    1764:	d1 08       	sbc	r13, r1
    1766:	e1 08       	sbc	r14, r1
    1768:	f1 08       	sbc	r15, r1
    176a:	cd 59       	subi	r28, 0x9D	; 157
    176c:	de 4f       	sbci	r29, 0xFE	; 254
    176e:	08 81       	ld	r16, Y
    1770:	19 81       	ldd	r17, Y+1	; 0x01
    1772:	c3 56       	subi	r28, 0x63	; 99
    1774:	d1 40       	sbci	r29, 0x01	; 1
    1776:	02 0d       	add	r16, r2
    1778:	13 1d       	adc	r17, r3
    177a:	c7 5a       	subi	r28, 0xA7	; 167
    177c:	de 4f       	sbci	r29, 0xFE	; 254
    177e:	88 80       	ld	r8, Y
    1780:	99 80       	ldd	r9, Y+1	; 0x01
    1782:	c9 55       	subi	r28, 0x59	; 89
    1784:	d1 40       	sbci	r29, 0x01	; 1
    1786:	08 0d       	add	r16, r8
    1788:	19 1d       	adc	r17, r9
    178a:	d8 01       	movw	r26, r16
    178c:	8d 90       	ld	r8, X+
    178e:	9d 90       	ld	r9, X+
    1790:	ad 90       	ld	r10, X+
    1792:	bc 90       	ld	r11, X
    1794:	cb 5a       	subi	r28, 0xAB	; 171
    1796:	de 4f       	sbci	r29, 0xFE	; 254
    1798:	88 82       	st	Y, r8
    179a:	99 82       	std	Y+1, r9	; 0x01
    179c:	aa 82       	std	Y+2, r10	; 0x02
    179e:	bb 82       	std	Y+3, r11	; 0x03
    17a0:	c5 55       	subi	r28, 0x55	; 85
    17a2:	d1 40       	sbci	r29, 0x01	; 1
    17a4:	f1 01       	movw	r30, r2
    17a6:	80 80       	ld	r8, Z
    17a8:	91 80       	ldd	r9, Z+1	; 0x01
    17aa:	a2 80       	ldd	r10, Z+2	; 0x02
    17ac:	b3 80       	ldd	r11, Z+3	; 0x03
    17ae:	a5 01       	movw	r20, r10
    17b0:	94 01       	movw	r18, r8
    17b2:	cb 5a       	subi	r28, 0xAB	; 171
    17b4:	de 4f       	sbci	r29, 0xFE	; 254
    17b6:	68 81       	ld	r22, Y
    17b8:	79 81       	ldd	r23, Y+1	; 0x01
    17ba:	8a 81       	ldd	r24, Y+2	; 0x02
    17bc:	9b 81       	ldd	r25, Y+3	; 0x03
    17be:	c5 55       	subi	r28, 0x55	; 85
    17c0:	d1 40       	sbci	r29, 0x01	; 1
    17c2:	0e 94 8d 18 	call	0x311a	; 0x311a <__addsf3>
    17c6:	cf 5a       	subi	r28, 0xAF	; 175
    17c8:	de 4f       	sbci	r29, 0xFE	; 254
    17ca:	68 83       	st	Y, r22
    17cc:	79 83       	std	Y+1, r23	; 0x01
    17ce:	8a 83       	std	Y+2, r24	; 0x02
    17d0:	9b 83       	std	Y+3, r25	; 0x03
    17d2:	c1 55       	subi	r28, 0x51	; 81
    17d4:	d1 40       	sbci	r29, 0x01	; 1
    17d6:	9b 01       	movw	r18, r22
    17d8:	ac 01       	movw	r20, r24
    17da:	cb 5a       	subi	r28, 0xAB	; 171
    17dc:	de 4f       	sbci	r29, 0xFE	; 254
    17de:	68 81       	ld	r22, Y
    17e0:	79 81       	ldd	r23, Y+1	; 0x01
    17e2:	8a 81       	ldd	r24, Y+2	; 0x02
    17e4:	9b 81       	ldd	r25, Y+3	; 0x03
    17e6:	c5 55       	subi	r28, 0x55	; 85
    17e8:	d1 40       	sbci	r29, 0x01	; 1
    17ea:	0e 94 8c 18 	call	0x3118	; 0x3118 <__subsf3>
    17ee:	a5 01       	movw	r20, r10
    17f0:	94 01       	movw	r18, r8
    17f2:	0e 94 8d 18 	call	0x311a	; 0x311a <__addsf3>
    17f6:	d1 01       	movw	r26, r2
    17f8:	6d 93       	st	X+, r22
    17fa:	7d 93       	st	X+, r23
    17fc:	8d 93       	st	X+, r24
    17fe:	9c 93       	st	X, r25
    1800:	13 97       	sbiw	r26, 0x03	; 3
    1802:	cf 5a       	subi	r28, 0xAF	; 175
    1804:	de 4f       	sbci	r29, 0xFE	; 254
    1806:	88 80       	ld	r8, Y
    1808:	99 80       	ldd	r9, Y+1	; 0x01
    180a:	aa 80       	ldd	r10, Y+2	; 0x02
    180c:	bb 80       	ldd	r11, Y+3	; 0x03
    180e:	c1 55       	subi	r28, 0x51	; 81
    1810:	d1 40       	sbci	r29, 0x01	; 1
    1812:	d8 01       	movw	r26, r16
    1814:	8d 92       	st	X+, r8
    1816:	9d 92       	st	X+, r9
    1818:	ad 92       	st	X+, r10
    181a:	bc 92       	st	X, r11
    181c:	13 97       	sbiw	r26, 0x03	; 3
    181e:	b4 e0       	ldi	r27, 0x04	; 4
    1820:	2b 1a       	sub	r2, r27
    1822:	31 08       	sbc	r3, r1
    1824:	96 cf       	rjmp	.-212    	; 0x1752 <__stack+0xe53>
    1826:	00 e0       	ldi	r16, 0x00	; 0
    1828:	10 e0       	ldi	r17, 0x00	; 0
    182a:	60 e0       	ldi	r22, 0x00	; 0
    182c:	70 e0       	ldi	r23, 0x00	; 0
    182e:	cb 01       	movw	r24, r22
    1830:	22 e0       	ldi	r18, 0x02	; 2
    1832:	42 16       	cp	r4, r18
    1834:	51 04       	cpc	r5, r1
    1836:	61 04       	cpc	r6, r1
    1838:	71 04       	cpc	r7, r1
    183a:	b4 f0       	brlt	.+44     	; 0x1868 <__stack+0xf69>
    183c:	cf 5b       	subi	r28, 0xBF	; 191
    183e:	de 4f       	sbci	r29, 0xFE	; 254
    1840:	e8 81       	ld	r30, Y
    1842:	f9 81       	ldd	r31, Y+1	; 0x01
    1844:	c1 54       	subi	r28, 0x41	; 65
    1846:	d1 40       	sbci	r29, 0x01	; 1
    1848:	e0 0f       	add	r30, r16
    184a:	f1 1f       	adc	r31, r17
    184c:	20 81       	ld	r18, Z
    184e:	31 81       	ldd	r19, Z+1	; 0x01
    1850:	42 81       	ldd	r20, Z+2	; 0x02
    1852:	53 81       	ldd	r21, Z+3	; 0x03
    1854:	0e 94 8d 18 	call	0x311a	; 0x311a <__addsf3>
    1858:	f1 e0       	ldi	r31, 0x01	; 1
    185a:	4f 1a       	sub	r4, r31
    185c:	51 08       	sbc	r5, r1
    185e:	61 08       	sbc	r6, r1
    1860:	71 08       	sbc	r7, r1
    1862:	04 50       	subi	r16, 0x04	; 4
    1864:	11 09       	sbc	r17, r1
    1866:	e4 cf       	rjmp	.-56     	; 0x1830 <__stack+0xf31>
    1868:	cb 5b       	subi	r28, 0xBB	; 187
    186a:	de 4f       	sbci	r29, 0xFE	; 254
    186c:	88 80       	ld	r8, Y
    186e:	99 80       	ldd	r9, Y+1	; 0x01
    1870:	aa 80       	ldd	r10, Y+2	; 0x02
    1872:	bb 80       	ldd	r11, Y+3	; 0x03
    1874:	c5 54       	subi	r28, 0x45	; 69
    1876:	d1 40       	sbci	r29, 0x01	; 1
    1878:	65 96       	adiw	r28, 0x15	; 21
    187a:	0c ad       	ldd	r16, Y+60	; 0x3c
    187c:	1d ad       	ldd	r17, Y+61	; 0x3d
    187e:	2e ad       	ldd	r18, Y+62	; 0x3e
    1880:	3f ad       	ldd	r19, Y+63	; 0x3f
    1882:	65 97       	sbiw	r28, 0x15	; 21
    1884:	81 14       	cp	r8, r1
    1886:	91 04       	cpc	r9, r1
    1888:	a1 04       	cpc	r10, r1
    188a:	b1 04       	cpc	r11, r1
    188c:	e9 f4       	brne	.+58     	; 0x18c8 <__stack+0xfc9>
    188e:	c3 5a       	subi	r28, 0xA3	; 163
    1890:	de 4f       	sbci	r29, 0xFE	; 254
    1892:	a8 81       	ld	r26, Y
    1894:	b9 81       	ldd	r27, Y+1	; 0x01
    1896:	cd 55       	subi	r28, 0x5D	; 93
    1898:	d1 40       	sbci	r29, 0x01	; 1
    189a:	0d 93       	st	X+, r16
    189c:	1d 93       	st	X+, r17
    189e:	2d 93       	st	X+, r18
    18a0:	3c 93       	st	X, r19
    18a2:	13 97       	sbiw	r26, 0x03	; 3
    18a4:	69 96       	adiw	r28, 0x19	; 25
    18a6:	0c ad       	ldd	r16, Y+60	; 0x3c
    18a8:	1d ad       	ldd	r17, Y+61	; 0x3d
    18aa:	2e ad       	ldd	r18, Y+62	; 0x3e
    18ac:	3f ad       	ldd	r19, Y+63	; 0x3f
    18ae:	69 97       	sbiw	r28, 0x19	; 25
    18b0:	fd 01       	movw	r30, r26
    18b2:	04 83       	std	Z+4, r16	; 0x04
    18b4:	15 83       	std	Z+5, r17	; 0x05
    18b6:	26 83       	std	Z+6, r18	; 0x06
    18b8:	37 83       	std	Z+7, r19	; 0x07
    18ba:	18 96       	adiw	r26, 0x08	; 8
    18bc:	6d 93       	st	X+, r22
    18be:	7d 93       	st	X+, r23
    18c0:	8d 93       	st	X+, r24
    18c2:	9c 93       	st	X, r25
    18c4:	1b 97       	sbiw	r26, 0x0b	; 11
    18c6:	1d c0       	rjmp	.+58     	; 0x1902 <__stack+0x1003>
    18c8:	30 58       	subi	r19, 0x80	; 128
    18ca:	c3 5a       	subi	r28, 0xA3	; 163
    18cc:	de 4f       	sbci	r29, 0xFE	; 254
    18ce:	e8 81       	ld	r30, Y
    18d0:	f9 81       	ldd	r31, Y+1	; 0x01
    18d2:	cd 55       	subi	r28, 0x5D	; 93
    18d4:	d1 40       	sbci	r29, 0x01	; 1
    18d6:	00 83       	st	Z, r16
    18d8:	11 83       	std	Z+1, r17	; 0x01
    18da:	22 83       	std	Z+2, r18	; 0x02
    18dc:	33 83       	std	Z+3, r19	; 0x03
    18de:	69 96       	adiw	r28, 0x19	; 25
    18e0:	0c ad       	ldd	r16, Y+60	; 0x3c
    18e2:	1d ad       	ldd	r17, Y+61	; 0x3d
    18e4:	2e ad       	ldd	r18, Y+62	; 0x3e
    18e6:	3f ad       	ldd	r19, Y+63	; 0x3f
    18e8:	69 97       	sbiw	r28, 0x19	; 25
    18ea:	30 58       	subi	r19, 0x80	; 128
    18ec:	04 83       	std	Z+4, r16	; 0x04
    18ee:	15 83       	std	Z+5, r17	; 0x05
    18f0:	26 83       	std	Z+6, r18	; 0x06
    18f2:	37 83       	std	Z+7, r19	; 0x07
    18f4:	dc 01       	movw	r26, r24
    18f6:	cb 01       	movw	r24, r22
    18f8:	b0 58       	subi	r27, 0x80	; 128
    18fa:	80 87       	std	Z+8, r24	; 0x08
    18fc:	91 87       	std	Z+9, r25	; 0x09
    18fe:	a2 87       	std	Z+10, r26	; 0x0a
    1900:	b3 87       	std	Z+11, r27	; 0x0b
    1902:	c7 5b       	subi	r28, 0xB7	; 183
    1904:	de 4f       	sbci	r29, 0xFE	; 254
    1906:	88 81       	ld	r24, Y
    1908:	99 81       	ldd	r25, Y+1	; 0x01
    190a:	c9 54       	subi	r28, 0x49	; 73
    190c:	d1 40       	sbci	r29, 0x01	; 1
    190e:	87 70       	andi	r24, 0x07	; 7
    1910:	99 27       	eor	r25, r25
    1912:	cf 58       	subi	r28, 0x8F	; 143
    1914:	de 4f       	sbci	r29, 0xFE	; 254
    1916:	e2 e1       	ldi	r30, 0x12	; 18
    1918:	0c 94 b8 17 	jmp	0x2f70	; 0x2f70 <__epilogue_restores__>

Disassembly of section .text:

00002d20 <__floatunsisf>:
    2d20:	e8 94       	clt
    2d22:	09 c0       	rjmp	.+18     	; 0x2d36 <__floatsisf+0x12>

00002d24 <__floatsisf>:
    2d24:	97 fb       	bst	r25, 7
    2d26:	3e f4       	brtc	.+14     	; 0x2d36 <__floatsisf+0x12>
    2d28:	90 95       	com	r25
    2d2a:	80 95       	com	r24
    2d2c:	70 95       	com	r23
    2d2e:	61 95       	neg	r22
    2d30:	7f 4f       	sbci	r23, 0xFF	; 255
    2d32:	8f 4f       	sbci	r24, 0xFF	; 255
    2d34:	9f 4f       	sbci	r25, 0xFF	; 255
    2d36:	99 23       	and	r25, r25
    2d38:	a9 f0       	breq	.+42     	; 0x2d64 <__floatsisf+0x40>
    2d3a:	f9 2f       	mov	r31, r25
    2d3c:	96 e9       	ldi	r25, 0x96	; 150
    2d3e:	bb 27       	eor	r27, r27
    2d40:	93 95       	inc	r25
    2d42:	f6 95       	lsr	r31
    2d44:	87 95       	ror	r24
    2d46:	77 95       	ror	r23
    2d48:	67 95       	ror	r22
    2d4a:	b7 95       	ror	r27
    2d4c:	f1 11       	cpse	r31, r1
    2d4e:	f8 cf       	rjmp	.-16     	; 0x2d40 <__floatsisf+0x1c>
    2d50:	fa f4       	brpl	.+62     	; 0x2d90 <__floatsisf+0x6c>
    2d52:	bb 0f       	add	r27, r27
    2d54:	11 f4       	brne	.+4      	; 0x2d5a <__floatsisf+0x36>
    2d56:	60 ff       	sbrs	r22, 0
    2d58:	1b c0       	rjmp	.+54     	; 0x2d90 <__floatsisf+0x6c>
    2d5a:	6f 5f       	subi	r22, 0xFF	; 255
    2d5c:	7f 4f       	sbci	r23, 0xFF	; 255
    2d5e:	8f 4f       	sbci	r24, 0xFF	; 255
    2d60:	9f 4f       	sbci	r25, 0xFF	; 255
    2d62:	16 c0       	rjmp	.+44     	; 0x2d90 <__floatsisf+0x6c>
    2d64:	88 23       	and	r24, r24
    2d66:	11 f0       	breq	.+4      	; 0x2d6c <__floatsisf+0x48>
    2d68:	96 e9       	ldi	r25, 0x96	; 150
    2d6a:	11 c0       	rjmp	.+34     	; 0x2d8e <__floatsisf+0x6a>
    2d6c:	77 23       	and	r23, r23
    2d6e:	21 f0       	breq	.+8      	; 0x2d78 <__floatsisf+0x54>
    2d70:	9e e8       	ldi	r25, 0x8E	; 142
    2d72:	87 2f       	mov	r24, r23
    2d74:	76 2f       	mov	r23, r22
    2d76:	05 c0       	rjmp	.+10     	; 0x2d82 <__floatsisf+0x5e>
    2d78:	66 23       	and	r22, r22
    2d7a:	71 f0       	breq	.+28     	; 0x2d98 <__floatsisf+0x74>
    2d7c:	96 e8       	ldi	r25, 0x86	; 134
    2d7e:	86 2f       	mov	r24, r22
    2d80:	70 e0       	ldi	r23, 0x00	; 0
    2d82:	60 e0       	ldi	r22, 0x00	; 0
    2d84:	2a f0       	brmi	.+10     	; 0x2d90 <__floatsisf+0x6c>
    2d86:	9a 95       	dec	r25
    2d88:	66 0f       	add	r22, r22
    2d8a:	77 1f       	adc	r23, r23
    2d8c:	88 1f       	adc	r24, r24
    2d8e:	da f7       	brpl	.-10     	; 0x2d86 <__floatsisf+0x62>
    2d90:	88 0f       	add	r24, r24
    2d92:	96 95       	lsr	r25
    2d94:	87 95       	ror	r24
    2d96:	97 f9       	bld	r25, 7
    2d98:	08 95       	ret

Disassembly of section .text:

00003180 <__gesf2>:
    3180:	0e 94 36 17 	call	0x2e6c	; 0x2e6c <__fp_cmp>
    3184:	08 f4       	brcc	.+2      	; 0x3188 <__gesf2+0x8>
    3186:	8f ef       	ldi	r24, 0xFF	; 255
    3188:	08 95       	ret

Disassembly of section .text.floorf:

00002516 <floorf>:
    2516:	4f 92       	push	r4
    2518:	5f 92       	push	r5
    251a:	6f 92       	push	r6
    251c:	7f 92       	push	r7
    251e:	8f 92       	push	r8
    2520:	9f 92       	push	r9
    2522:	af 92       	push	r10
    2524:	bf 92       	push	r11
    2526:	cf 92       	push	r12
    2528:	df 92       	push	r13
    252a:	ef 92       	push	r14
    252c:	ff 92       	push	r15
    252e:	cf 93       	push	r28
    2530:	df 93       	push	r29
    2532:	cd b7       	in	r28, 0x3d	; 61
    2534:	de b7       	in	r29, 0x3e	; 62
    2536:	28 97       	sbiw	r28, 0x08	; 8
    2538:	0f b6       	in	r0, 0x3f	; 63
    253a:	f8 94       	cli
    253c:	de bf       	out	0x3e, r29	; 62
    253e:	0f be       	out	0x3f, r0	; 63
    2540:	cd bf       	out	0x3d, r28	; 61
    2542:	6b 01       	movw	r12, r22
    2544:	7c 01       	movw	r14, r24
    2546:	dc 01       	movw	r26, r24
    2548:	cb 01       	movw	r24, r22
    254a:	47 e1       	ldi	r20, 0x17	; 23
    254c:	b6 95       	lsr	r27
    254e:	a7 95       	ror	r26
    2550:	97 95       	ror	r25
    2552:	87 95       	ror	r24
    2554:	4a 95       	dec	r20
    2556:	d1 f7       	brne	.-12     	; 0x254c <floorf+0x36>
    2558:	99 27       	eor	r25, r25
    255a:	8f 57       	subi	r24, 0x7F	; 127
    255c:	91 09       	sbc	r25, r1
    255e:	87 31       	cpi	r24, 0x17	; 23
    2560:	91 05       	cpc	r25, r1
    2562:	9c f5       	brge	.+102    	; 0x25ca <floorf+0xb4>
    2564:	97 fd       	sbrc	r25, 7
    2566:	36 c0       	rjmp	.+108    	; 0x25d4 <floorf+0xbe>
    2568:	88 24       	eor	r8, r8
    256a:	8a 94       	dec	r8
    256c:	98 2c       	mov	r9, r8
    256e:	3f e7       	ldi	r19, 0x7F	; 127
    2570:	a3 2e       	mov	r10, r19
    2572:	b1 2c       	mov	r11, r1
    2574:	04 c0       	rjmp	.+8      	; 0x257e <floorf+0x68>
    2576:	b5 94       	asr	r11
    2578:	a7 94       	ror	r10
    257a:	97 94       	ror	r9
    257c:	87 94       	ror	r8
    257e:	8a 95       	dec	r24
    2580:	d2 f7       	brpl	.-12     	; 0x2576 <floorf+0x60>
    2582:	d5 01       	movw	r26, r10
    2584:	c4 01       	movw	r24, r8
    2586:	8c 21       	and	r24, r12
    2588:	9d 21       	and	r25, r13
    258a:	ae 21       	and	r26, r14
    258c:	bf 21       	and	r27, r15
    258e:	89 2b       	or	r24, r25
    2590:	8a 2b       	or	r24, r26
    2592:	8b 2b       	or	r24, r27
    2594:	d1 f0       	breq	.+52     	; 0x25ca <floorf+0xb4>
    2596:	20 e0       	ldi	r18, 0x00	; 0
    2598:	30 e0       	ldi	r19, 0x00	; 0
    259a:	40 e8       	ldi	r20, 0x80	; 128
    259c:	5b e7       	ldi	r21, 0x7B	; 123
    259e:	c7 01       	movw	r24, r14
    25a0:	b6 01       	movw	r22, r12
    25a2:	0e 94 8d 18 	call	0x311a	; 0x311a <__addsf3>
    25a6:	6d 83       	std	Y+5, r22	; 0x05
    25a8:	7e 83       	std	Y+6, r23	; 0x06
    25aa:	8f 83       	std	Y+7, r24	; 0x07
    25ac:	98 87       	std	Y+8, r25	; 0x08
    25ae:	f7 fe       	sbrs	r15, 7
    25b0:	04 c0       	rjmp	.+8      	; 0x25ba <floorf+0xa4>
    25b2:	c8 0c       	add	r12, r8
    25b4:	d9 1c       	adc	r13, r9
    25b6:	ea 1c       	adc	r14, r10
    25b8:	fb 1c       	adc	r15, r11
    25ba:	80 94       	com	r8
    25bc:	90 94       	com	r9
    25be:	a0 94       	com	r10
    25c0:	b0 94       	com	r11
    25c2:	c8 20       	and	r12, r8
    25c4:	d9 20       	and	r13, r9
    25c6:	ea 20       	and	r14, r10
    25c8:	fb 20       	and	r15, r11
    25ca:	5c 2d       	mov	r21, r12
    25cc:	4d 2d       	mov	r20, r13
    25ce:	3e 2d       	mov	r19, r14
    25d0:	2f 2d       	mov	r18, r15
    25d2:	21 c0       	rjmp	.+66     	; 0x2616 <floorf+0x100>
    25d4:	20 e0       	ldi	r18, 0x00	; 0
    25d6:	30 e0       	ldi	r19, 0x00	; 0
    25d8:	40 e8       	ldi	r20, 0x80	; 128
    25da:	5b e7       	ldi	r21, 0x7B	; 123
    25dc:	c7 01       	movw	r24, r14
    25de:	b6 01       	movw	r22, r12
    25e0:	0e 94 8d 18 	call	0x311a	; 0x311a <__addsf3>
    25e4:	69 83       	std	Y+1, r22	; 0x01
    25e6:	7a 83       	std	Y+2, r23	; 0x02
    25e8:	8b 83       	std	Y+3, r24	; 0x03
    25ea:	9c 83       	std	Y+4, r25	; 0x04
    25ec:	f7 fe       	sbrs	r15, 7
    25ee:	0f c0       	rjmp	.+30     	; 0x260e <floorf+0xf8>
    25f0:	d7 01       	movw	r26, r14
    25f2:	c6 01       	movw	r24, r12
    25f4:	88 0f       	add	r24, r24
    25f6:	99 1f       	adc	r25, r25
    25f8:	aa 1f       	adc	r26, r26
    25fa:	bb 1f       	adc	r27, r27
    25fc:	89 2b       	or	r24, r25
    25fe:	8a 2b       	or	r24, r26
    2600:	8b 2b       	or	r24, r27
    2602:	19 f3       	breq	.-58     	; 0x25ca <floorf+0xb4>
    2604:	50 e0       	ldi	r21, 0x00	; 0
    2606:	40 e0       	ldi	r20, 0x00	; 0
    2608:	30 e8       	ldi	r19, 0x80	; 128
    260a:	2f eb       	ldi	r18, 0xBF	; 191
    260c:	04 c0       	rjmp	.+8      	; 0x2616 <floorf+0x100>
    260e:	50 e0       	ldi	r21, 0x00	; 0
    2610:	40 e0       	ldi	r20, 0x00	; 0
    2612:	30 e0       	ldi	r19, 0x00	; 0
    2614:	20 e0       	ldi	r18, 0x00	; 0
    2616:	65 2f       	mov	r22, r21
    2618:	74 2f       	mov	r23, r20
    261a:	83 2f       	mov	r24, r19
    261c:	92 2f       	mov	r25, r18
    261e:	28 96       	adiw	r28, 0x08	; 8
    2620:	0f b6       	in	r0, 0x3f	; 63
    2622:	f8 94       	cli
    2624:	de bf       	out	0x3e, r29	; 62
    2626:	0f be       	out	0x3f, r0	; 63
    2628:	cd bf       	out	0x3d, r28	; 61
    262a:	df 91       	pop	r29
    262c:	cf 91       	pop	r28
    262e:	ff 90       	pop	r15
    2630:	ef 90       	pop	r14
    2632:	df 90       	pop	r13
    2634:	cf 90       	pop	r12
    2636:	bf 90       	pop	r11
    2638:	af 90       	pop	r10
    263a:	9f 90       	pop	r9
    263c:	8f 90       	pop	r8
    263e:	7f 90       	pop	r7
    2640:	6f 90       	pop	r6
    2642:	5f 90       	pop	r5
    2644:	4f 90       	pop	r4
    2646:	08 95       	ret

Disassembly of section .text.scalbnf:

00002bcc <scalbnf>:
    2bcc:	0f 93       	push	r16
    2bce:	1f 93       	push	r17
    2bd0:	cf 93       	push	r28
    2bd2:	df 93       	push	r29
    2bd4:	ea 01       	movw	r28, r20
    2bd6:	40 38       	cpi	r20, 0x80	; 128
    2bd8:	51 05       	cpc	r21, r1
    2bda:	d4 f0       	brlt	.+52     	; 0x2c10 <scalbnf+0x44>
    2bdc:	20 e0       	ldi	r18, 0x00	; 0
    2bde:	30 e0       	ldi	r19, 0x00	; 0
    2be0:	40 e0       	ldi	r20, 0x00	; 0
    2be2:	5f e7       	ldi	r21, 0x7F	; 127
    2be4:	0e 94 c9 18 	call	0x3192	; 0x3192 <__mulsf3>
    2be8:	9e 01       	movw	r18, r28
    2bea:	2f 57       	subi	r18, 0x7F	; 127
    2bec:	31 09       	sbc	r19, r1
    2bee:	20 38       	cpi	r18, 0x80	; 128
    2bf0:	31 05       	cpc	r19, r1
    2bf2:	6c f1       	brlt	.+90     	; 0x2c4e <scalbnf+0x82>
    2bf4:	20 e0       	ldi	r18, 0x00	; 0
    2bf6:	30 e0       	ldi	r19, 0x00	; 0
    2bf8:	40 e0       	ldi	r20, 0x00	; 0
    2bfa:	5f e7       	ldi	r21, 0x7F	; 127
    2bfc:	0e 94 c9 18 	call	0x3192	; 0x3192 <__mulsf3>
    2c00:	ce 5f       	subi	r28, 0xFE	; 254
    2c02:	d1 09       	sbc	r29, r1
    2c04:	c0 38       	cpi	r28, 0x80	; 128
    2c06:	d1 05       	cpc	r29, r1
    2c08:	1c f1       	brlt	.+70     	; 0x2c50 <scalbnf+0x84>
    2c0a:	cf e7       	ldi	r28, 0x7F	; 127
    2c0c:	d0 e0       	ldi	r29, 0x00	; 0
    2c0e:	20 c0       	rjmp	.+64     	; 0x2c50 <scalbnf+0x84>
    2c10:	42 38       	cpi	r20, 0x82	; 130
    2c12:	5f 4f       	sbci	r21, 0xFF	; 255
    2c14:	ec f4       	brge	.+58     	; 0x2c50 <scalbnf+0x84>
    2c16:	20 e0       	ldi	r18, 0x00	; 0
    2c18:	30 e0       	ldi	r19, 0x00	; 0
    2c1a:	40 e8       	ldi	r20, 0x80	; 128
    2c1c:	5c e0       	ldi	r21, 0x0C	; 12
    2c1e:	0e 94 c9 18 	call	0x3192	; 0x3192 <__mulsf3>
    2c22:	9e 01       	movw	r18, r28
    2c24:	2a 59       	subi	r18, 0x9A	; 154
    2c26:	3f 4f       	sbci	r19, 0xFF	; 255
    2c28:	22 38       	cpi	r18, 0x82	; 130
    2c2a:	4f ef       	ldi	r20, 0xFF	; 255
    2c2c:	34 07       	cpc	r19, r20
    2c2e:	7c f4       	brge	.+30     	; 0x2c4e <scalbnf+0x82>
    2c30:	20 e0       	ldi	r18, 0x00	; 0
    2c32:	30 e0       	ldi	r19, 0x00	; 0
    2c34:	40 e8       	ldi	r20, 0x80	; 128
    2c36:	5c e0       	ldi	r21, 0x0C	; 12
    2c38:	0e 94 c9 18 	call	0x3192	; 0x3192 <__mulsf3>
    2c3c:	c4 53       	subi	r28, 0x34	; 52
    2c3e:	df 4f       	sbci	r29, 0xFF	; 255
    2c40:	c2 38       	cpi	r28, 0x82	; 130
    2c42:	2f ef       	ldi	r18, 0xFF	; 255
    2c44:	d2 07       	cpc	r29, r18
    2c46:	24 f4       	brge	.+8      	; 0x2c50 <scalbnf+0x84>
    2c48:	c2 e8       	ldi	r28, 0x82	; 130
    2c4a:	df ef       	ldi	r29, 0xFF	; 255
    2c4c:	01 c0       	rjmp	.+2      	; 0x2c50 <scalbnf+0x84>
    2c4e:	e9 01       	movw	r28, r18
    2c50:	9e 01       	movw	r18, r28
    2c52:	21 58       	subi	r18, 0x81	; 129
    2c54:	3f 4f       	sbci	r19, 0xFF	; 255
    2c56:	89 01       	movw	r16, r18
    2c58:	33 0f       	add	r19, r19
    2c5a:	22 0b       	sbc	r18, r18
    2c5c:	33 0b       	sbc	r19, r19
    2c5e:	a9 01       	movw	r20, r18
    2c60:	98 01       	movw	r18, r16
    2c62:	e7 e1       	ldi	r30, 0x17	; 23
    2c64:	22 0f       	add	r18, r18
    2c66:	33 1f       	adc	r19, r19
    2c68:	44 1f       	adc	r20, r20
    2c6a:	55 1f       	adc	r21, r21
    2c6c:	ea 95       	dec	r30
    2c6e:	d1 f7       	brne	.-12     	; 0x2c64 <scalbnf+0x98>
    2c70:	0e 94 c9 18 	call	0x3192	; 0x3192 <__mulsf3>
    2c74:	df 91       	pop	r29
    2c76:	cf 91       	pop	r28
    2c78:	1f 91       	pop	r17
    2c7a:	0f 91       	pop	r16
    2c7c:	08 95       	ret

Disassembly of section .text.libgcc.div:

00002fd2 <__divmodhi4>:
    2fd2:	97 fb       	bst	r25, 7
    2fd4:	07 2e       	mov	r0, r23
    2fd6:	16 f4       	brtc	.+4      	; 0x2fdc <__divmodhi4+0xa>
    2fd8:	00 94       	com	r0
    2fda:	07 d0       	rcall	.+14     	; 0x2fea <__divmodhi4_neg1>
    2fdc:	77 fd       	sbrc	r23, 7
    2fde:	09 d0       	rcall	.+18     	; 0x2ff2 <__divmodhi4_neg2>
    2fe0:	0e 94 fd 17 	call	0x2ffa	; 0x2ffa <__udivmodhi4>
    2fe4:	07 fc       	sbrc	r0, 7
    2fe6:	05 d0       	rcall	.+10     	; 0x2ff2 <__divmodhi4_neg2>
    2fe8:	3e f4       	brtc	.+14     	; 0x2ff8 <__divmodhi4_exit>

00002fea <__divmodhi4_neg1>:
    2fea:	90 95       	com	r25
    2fec:	81 95       	neg	r24
    2fee:	9f 4f       	sbci	r25, 0xFF	; 255
    2ff0:	08 95       	ret

00002ff2 <__divmodhi4_neg2>:
    2ff2:	70 95       	com	r23
    2ff4:	61 95       	neg	r22
    2ff6:	7f 4f       	sbci	r23, 0xFF	; 255

00002ff8 <__divmodhi4_exit>:
    2ff8:	08 95       	ret

Disassembly of section .text.libgcc:

0000316a <__tablejump2__>:
    316a:	ee 0f       	add	r30, r30
    316c:	ff 1f       	adc	r31, r31
    316e:	05 90       	lpm	r0, Z+
    3170:	f4 91       	lpm	r31, Z
    3172:	e0 2d       	mov	r30, r0
    3174:	09 94       	ijmp

Disassembly of section .text.libgcc.mul:

000030dc <__mulshisi3>:
    30dc:	b7 ff       	sbrs	r27, 7
    30de:	0c 94 58 18 	jmp	0x30b0	; 0x30b0 <__muluhisi3>

000030e2 <__mulohisi3>:
    30e2:	0e 94 58 18 	call	0x30b0	; 0x30b0 <__muluhisi3>
    30e6:	82 1b       	sub	r24, r18
    30e8:	93 0b       	sbc	r25, r19
    30ea:	08 95       	ret

Disassembly of section .text.libgcc.prologue:

00002f38 <__prologue_saves__>:
    2f38:	2f 92       	push	r2
    2f3a:	3f 92       	push	r3
    2f3c:	4f 92       	push	r4
    2f3e:	5f 92       	push	r5
    2f40:	6f 92       	push	r6
    2f42:	7f 92       	push	r7
    2f44:	8f 92       	push	r8
    2f46:	9f 92       	push	r9
    2f48:	af 92       	push	r10
    2f4a:	bf 92       	push	r11
    2f4c:	cf 92       	push	r12
    2f4e:	df 92       	push	r13
    2f50:	ef 92       	push	r14
    2f52:	ff 92       	push	r15
    2f54:	0f 93       	push	r16
    2f56:	1f 93       	push	r17
    2f58:	cf 93       	push	r28
    2f5a:	df 93       	push	r29
    2f5c:	cd b7       	in	r28, 0x3d	; 61
    2f5e:	de b7       	in	r29, 0x3e	; 62
    2f60:	ca 1b       	sub	r28, r26
    2f62:	db 0b       	sbc	r29, r27
    2f64:	0f b6       	in	r0, 0x3f	; 63
    2f66:	f8 94       	cli
    2f68:	de bf       	out	0x3e, r29	; 62
    2f6a:	0f be       	out	0x3f, r0	; 63
    2f6c:	cd bf       	out	0x3d, r28	; 61
    2f6e:	09 94       	ijmp

Disassembly of section .text.libgcc.prologue:

00002f70 <__epilogue_restores__>:
    2f70:	2a 88       	ldd	r2, Y+18	; 0x12
    2f72:	39 88       	ldd	r3, Y+17	; 0x11
    2f74:	48 88       	ldd	r4, Y+16	; 0x10
    2f76:	5f 84       	ldd	r5, Y+15	; 0x0f
    2f78:	6e 84       	ldd	r6, Y+14	; 0x0e
    2f7a:	7d 84       	ldd	r7, Y+13	; 0x0d
    2f7c:	8c 84       	ldd	r8, Y+12	; 0x0c
    2f7e:	9b 84       	ldd	r9, Y+11	; 0x0b
    2f80:	aa 84       	ldd	r10, Y+10	; 0x0a
    2f82:	b9 84       	ldd	r11, Y+9	; 0x09
    2f84:	c8 84       	ldd	r12, Y+8	; 0x08
    2f86:	df 80       	ldd	r13, Y+7	; 0x07
    2f88:	ee 80       	ldd	r14, Y+6	; 0x06
    2f8a:	fd 80       	ldd	r15, Y+5	; 0x05
    2f8c:	0c 81       	ldd	r16, Y+4	; 0x04
    2f8e:	1b 81       	ldd	r17, Y+3	; 0x03
    2f90:	aa 81       	ldd	r26, Y+2	; 0x02
    2f92:	b9 81       	ldd	r27, Y+1	; 0x01
    2f94:	ce 0f       	add	r28, r30
    2f96:	d1 1d       	adc	r29, r1
    2f98:	0f b6       	in	r0, 0x3f	; 63
    2f9a:	f8 94       	cli
    2f9c:	de bf       	out	0x3e, r29	; 62
    2f9e:	0f be       	out	0x3f, r0	; 63
    2fa0:	cd bf       	out	0x3d, r28	; 61
    2fa2:	ed 01       	movw	r28, r26
    2fa4:	08 95       	ret

Disassembly of section .text.libgcc:

000030ec <__xload_2>:
    30ec:	57 fd       	sbrc	r21, 7
    30ee:	03 c0       	rjmp	.+6      	; 0x30f6 <__xload_2+0xa>
    30f0:	65 91       	lpm	r22, Z+
    30f2:	75 91       	lpm	r23, Z+
    30f4:	08 95       	ret
    30f6:	61 91       	ld	r22, Z+
    30f8:	71 91       	ld	r23, Z+
    30fa:	08 95       	ret

Disassembly of section .text.libgcc:

00003082 <__xload_4>:
    3082:	57 fd       	sbrc	r21, 7
    3084:	05 c0       	rjmp	.+10     	; 0x3090 <__xload_4+0xe>
    3086:	65 91       	lpm	r22, Z+
    3088:	75 91       	lpm	r23, Z+
    308a:	85 91       	lpm	r24, Z+
    308c:	95 91       	lpm	r25, Z+
    308e:	08 95       	ret
    3090:	61 91       	ld	r22, Z+
    3092:	71 91       	ld	r23, Z+
    3094:	81 91       	ld	r24, Z+
    3096:	91 91       	ld	r25, Z+
    3098:	08 95       	ret

Disassembly of section .text.libgcc.div:

00002ffa <__udivmodhi4>:
    2ffa:	aa 1b       	sub	r26, r26
    2ffc:	bb 1b       	sub	r27, r27
    2ffe:	51 e1       	ldi	r21, 0x11	; 17
    3000:	07 c0       	rjmp	.+14     	; 0x3010 <__udivmodhi4_ep>

00003002 <__udivmodhi4_loop>:
    3002:	aa 1f       	adc	r26, r26
    3004:	bb 1f       	adc	r27, r27
    3006:	a6 17       	cp	r26, r22
    3008:	b7 07       	cpc	r27, r23
    300a:	10 f0       	brcs	.+4      	; 0x3010 <__udivmodhi4_ep>
    300c:	a6 1b       	sub	r26, r22
    300e:	b7 0b       	sbc	r27, r23

00003010 <__udivmodhi4_ep>:
    3010:	88 1f       	adc	r24, r24
    3012:	99 1f       	adc	r25, r25
    3014:	5a 95       	dec	r21
    3016:	a9 f7       	brne	.-22     	; 0x3002 <__udivmodhi4_loop>
    3018:	80 95       	com	r24
    301a:	90 95       	com	r25
    301c:	bc 01       	movw	r22, r24
    301e:	cd 01       	movw	r24, r26
    3020:	08 95       	ret

Disassembly of section .text.libgcc.mul:

000030b0 <__muluhisi3>:
    30b0:	0e 94 32 18 	call	0x3064	; 0x3064 <__umulhisi3>
    30b4:	a5 9f       	mul	r26, r21
    30b6:	90 0d       	add	r25, r0
    30b8:	b4 9f       	mul	r27, r20
    30ba:	90 0d       	add	r25, r0
    30bc:	a4 9f       	mul	r26, r20
    30be:	80 0d       	add	r24, r0
    30c0:	91 1d       	adc	r25, r1
    30c2:	11 24       	eor	r1, r1
    30c4:	08 95       	ret

Disassembly of section .text.libgcc.mul:

00003064 <__umulhisi3>:
    3064:	a2 9f       	mul	r26, r18
    3066:	b0 01       	movw	r22, r0
    3068:	b3 9f       	mul	r27, r19
    306a:	c0 01       	movw	r24, r0
    306c:	a3 9f       	mul	r26, r19
    306e:	70 0d       	add	r23, r0
    3070:	81 1d       	adc	r24, r1
    3072:	11 24       	eor	r1, r1
    3074:	91 1d       	adc	r25, r1
    3076:	b2 9f       	mul	r27, r18
    3078:	70 0d       	add	r23, r0
    307a:	81 1d       	adc	r24, r1
    307c:	11 24       	eor	r1, r1
    307e:	91 1d       	adc	r25, r1
    3080:	08 95       	ret

Disassembly of section .text.__dummy_fini:

000031a8 <_fini>:
    31a8:	08 95       	ret

Disassembly of section .text.__dummy_funcs_on_exit:

000031aa <__funcs_on_exit>:
    31aa:	08 95       	ret

Disassembly of section .text.__dummy_simulator_exit:

000031ac <__simulator_exit>:
    31ac:	08 95       	ret

Disassembly of section .text.exit:

000030c6 <exit>:
    30c6:	ec 01       	movw	r28, r24
    30c8:	0e 94 d5 18 	call	0x31aa	; 0x31aa <__funcs_on_exit>
    30cc:	0e 94 d4 18 	call	0x31a8	; 0x31a8 <_fini>
    30d0:	ce 01       	movw	r24, r28
    30d2:	0e 94 d6 18 	call	0x31ac	; 0x31ac <__simulator_exit>
    30d6:	ce 01       	movw	r24, r28
    30d8:	0e 94 d2 18 	call	0x31a4	; 0x31a4 <_Exit>

Disassembly of section .text._Exit:

000031a4 <_Exit>:
    31a4:	0e 94 4c 00 	call	0x98	; 0x98 <_exit>
